Certificate:
    Data:
        Version: 3 (0x2)
        Serial Number:
            09:b7:10:b7:71:2c:10:36:01:54:f9:6d:1b:21:d4:7e:36:f1:e9:54
        Signature Algorithm: sha256WithRSAEncryption
        Issuer: C=UA, ST=Debug, O=FlowCrypt, CN=flowcrypt.test/emailAddress=admin@flowcrypt.test
        Validity
            Not Before: Apr 29 13:25:42 2021 GMT
            Not After : Apr 27 13:25:42 2031 GMT
        Subject: C=UA, ST=Debug, O=FlowCrypt, CN=localhost
        Subject Public Key Info:
            Public Key Algorithm: rsaEncryption
                RSA Public-Key: (2048 bit)
                Modulus:
                    00:c0:d4:14:7c:6a:ae:f7:fd:9f:6e:49:77:1f:bc:
                    f7:52:b5:df:6f:5f:4b:75:a4:0f:c7:cf:77:25:16:
                    3a:ca:4c:3a:e7:21:b8:84:8a:00:20:f3:64:c9:b8:
                    e2:5e:52:d7:53:1f:2a:c5:f4:6a:2b:56:06:e3:69:
                    23:5f:e1:5d:ea:e6:e5:2d:7c:84:b3:8f:cb:38:d3:
                    ae:0d:2c:54:53:7b:8d:0c:94:cc:aa:f9:71:ac:6d:
                    1c:b1:58:4c:e4:f4:e6:6b:e8:3f:b2:39:48:c9:29:
                    9a:a4:6b:53:bf:a2:4f:78:70:2e:99:16:de:6c:b1:
                    c6:c6:c8:ef:cd:86:6e:e0:66:fe:7c:c0:bf:f5:4b:
                    2f:b6:9f:01:46:31:7b:39:d1:3e:20:3c:70:28:77:
                    6e:15:25:6d:47:60:7e:ce:7d:b9:b7:0b:a9:9e:a6:
                    e3:0c:d7:4e:f5:d1:22:dd:53:a1:0e:87:5d:56:4f:
                    b0:d6:b8:cc:89:b7:c5:9c:dc:63:42:25:92:3c:7f:
                    93:73:7e:66:7b:c5:69:e5:da:15:9e:23:ad:a7:c6:
                    63:a4:96:49:d4:69:b0:50:90:f8:5f:84:d4:48:7c:
                    e6:40:3a:80:f2:b3:3a:d5:09:c5:11:38:8f:7d:62:
                    2e:55:13:0e:53:6c:fb:bb:6d:96:7a:cb:e7:30:74:
                    b4:75
                Exponent: 65537 (0x10001)
        X509v3 extensions:
            X509v3 Basic Constraints: 
                CA:FALSE
            Netscape Comment: 
                OpenSSL Generated Certificate
            X509v3 Subject Key Identifier: 
                98:C0:24:68:C8:AB:51:3B:19:3C:75:F8:9C:2E:DF:3A:4A:EE:80:B5
            X509v3 Authority Key Identifier: 
                keyid:CC:5E:C9:EC:AE:05:FF:3C:08:64:3C:8A:75:6A:7F:DF:08:A8:FE:A9

            X509v3 Key Usage: 
                Digital Signature, Non Repudiation, Key Encipherment
            X509v3 Subject Alternative Name: 
                DNS:localhost
    Signature Algorithm: sha256WithRSAEncryption
         6a:8a:bf:2f:24:ab:52:e2:d2:9f:8a:71:1a:9b:df:41:d5:5b:
         da:82:b7:52:ab:8a:71:ed:e5:e6:99:f5:1b:c2:66:e6:10:9e:
         88:2c:28:13:a1:9a:79:bc:40:3c:b8:93:50:7b:8e:a5:b1:32:
         f9:4e:e3:c7:3d:ad:4e:a8:a3:e6:ae:5e:32:05:22:21:91:18:
         d3:b6:f1:1e:5b:0e:64:1a:f3:e0:79:6b:51:08:bd:98:62:3e:
         ae:da:97:48:7b:18:ad:04:f9:9b:78:71:2b:4f:9d:17:35:92:
         24:e9:7e:9d:0f:a3:dc:fe:b6:aa:65:44:d0:5f:21:23:5e:bf:
         18:9a:89:7f:8c:78:ed:d4:21:ca:ec:97:10:a2:7c:b2:43:4c:
         ec:6e:17:c6:00:1f:fd:47:32:d9:07:1f:5b:5c:28:e5:77:57:
         02:b7:f6:b7:00:2d:40:1c:14:93:7b:3e:cf:55:2a:73:3d:0b:
         38:79:0e:f8:53:b6:03:ac:c3:3f:4a:e1:37:75:a0:5a:74:bf:
         d5:95:fc:d3:a2:8d:28:c5:7c:be:1c:13:fd:25:9d:bd:ee:b4:
         72:72:c9:4f:e0:86:a2:e1:b1:d1:60:94:0e:0a:e0:cb:64:59:
         ed:10:4d:93:62:9f:05:bb:51:63:27:26:3f:a7:9b:6e:03:d5:
         a8:49:36:be
-----BEGIN CERTIFICATE-----
MIID4jCCAsqgAwIBAgIUCbcQt3EsEDYBVPltGyHUfjbx6VQwDQYJKoZIhvcNAQEL
BQAwbzELMAkGA1UEBhMCVUExDjAMBgNVBAgMBURlYnVnMRIwEAYDVQQKDAlGbG93
Q3J5cHQxFzAVBgNVBAMMDmZsb3djcnlwdC50ZXN0MSMwIQYJKoZIhvcNAQkBFhRh
ZG1pbkBmbG93Y3J5cHQudGVzdDAeFw0yMTA0MjkxMzI1NDJaFw0zMTA0MjcxMzI1
NDJaMEUxCzAJBgNVBAYTAlVBMQ4wDAYDVQQIDAVEZWJ1ZzESMBAGA1UECgwJRmxv
d0NyeXB0MRIwEAYDVQQDDAlsb2NhbGhvc3QwggEiMA0GCSqGSIb3DQEBAQUAA4IB
DwAwggEKAoIBAQDA1BR8aq73/Z9uSXcfvPdStd9vX0t1pA/Hz3clFjrKTDrnIbiE
igAg82TJuOJeUtdTHyrF9GorVgbjaSNf4V3q5uUtfISzj8s4064NLFRTe40MlMyq
+XGsbRyxWEzk9OZr6D+yOUjJKZqka1O/ok94cC6ZFt5sscbGyO/Nhm7gZv58wL/1
Sy+2nwFGMXs50T4gPHAod24VJW1HYH7Ofbm3C6mepuMM10710SLdU6EOh11WT7DW
uMyJt8Wc3GNCJZI8f5NzfmZ7xWnl2hWeI62nxmOklknUabBQkPhfhNRIfOZAOoDy
szrVCcUROI99Yi5VEw5TbPu7bZZ6y+cwdLR1AgMBAAGjgZ8wgZwwCQYDVR0TBAIw
ADAsBglghkgBhvhCAQ0EHxYdT3BlblNTTCBHZW5lcmF0ZWQgQ2VydGlmaWNhdGUw
HQYDVR0OBBYEFJjAJGjIq1E7GTx1+Jwu3zpK7oC1MB8GA1UdIwQYMBaAFMxeyeyu
Bf88CGQ8inVqf98IqP6pMAsGA1UdDwQEAwIF4DAUBgNVHREEDTALgglsb2NhbGhv
c3QwDQYJKoZIhvcNAQELBQADggEBAGqKvy8kq1Li0p+KcRqb30HVW9qCt1KrinHt
5eaZ9RvCZuYQnogsKBOhmnm8QDy4k1B7jqWxMvlO48c9rU6oo+auXjIFIiGRGNO2
8R5bDmQa8+B5a1EIvZhiPq7al0h7GK0E+Zt4cStPnRc1kiTpfp0Po9z+tqplRNBf
ISNevxiaiX+MeO3UIcrslxCifLJDTOxuF8YAH/1HMtkHH1tcKOV3VwK39rcALUAc
FJN7Ps9VKnM9Czh5DvhTtgOswz9K4Td1oFp0v9WV/NOijSjFfL4cE/0lnb3utHJy
yU/ghqLhsdFglA4K4MtkWe0QTZNinwW7UWMnJj+nm24D1ahJNr4=
-----END CERTIFICATE-----
