Certificate:
    Data:
        Version: 3 (0x2)
        Serial Number:
            09:b7:10:b7:71:2c:10:36:01:54:f9:6d:1b:21:d4:7e:36:f1:e9:51
        Signature Algorithm: sha256WithRSAEncryption
        Issuer: C=UA, ST=Debug, O=FlowCrypt, CN=flowcrypt.test/emailAddress=admin@flowcrypt.test
        Validity
            Not Before: Apr 29 08:20:27 2021 GMT
            Not After : Apr 24 08:20:27 2041 GMT
        Subject: C=UA, ST=Debug, O=FlowCrypt, CN=flowcrypt.test/emailAddress=admin@flowcrypt.test
        Subject Public Key Info:
            Public Key Algorithm: rsaEncryption
                RSA Public-Key: (2048 bit)
                Modulus:
                    00:cb:e7:a9:0b:1e:ac:44:a0:7b:b9:46:8b:70:25:
                    7e:64:44:41:ff:e3:cb:e0:44:80:11:5b:6e:08:e1:
                    c0:78:3f:4f:66:9a:79:35:3f:b7:4a:5f:7f:46:36:
                    fa:42:ed:5b:83:fd:44:7e:16:9f:96:76:4e:89:03:
                    25:25:ed:97:7b:4d:14:5c:84:b0:79:3e:4e:c7:cb:
                    85:d0:69:35:97:bc:73:5b:05:b0:6f:6a:25:2f:82:
                    06:ef:03:eb:3e:3b:ff:b7:80:86:bc:1a:4c:6e:45:
                    c3:d3:53:07:d3:c1:37:8b:db:6e:43:5c:48:63:2d:
                    68:d3:fd:91:a2:25:a8:ab:55:06:28:31:51:d9:04:
                    86:9e:9e:9e:8d:3c:c9:1d:ea:c8:e3:fa:14:6e:61:
                    3f:8c:a6:f7:fb:50:57:e8:ce:dd:54:95:1c:09:c4:
                    4f:cb:c6:ca:a8:f3:db:5d:89:64:6f:98:54:bb:00:
                    ef:c7:2b:a3:32:65:05:29:86:2e:59:4c:cc:fa:31:
                    a0:40:b3:2e:bc:91:53:30:75:54:cf:96:9e:6d:78:
                    1f:75:62:35:e9:f5:bb:29:5e:56:ce:45:1b:ec:38:
                    1d:e3:ad:3f:d9:c8:66:c4:81:2c:1e:85:25:3d:1a:
                    fc:0e:aa:a5:2d:1e:44:15:ec:ad:1d:9a:e7:ca:85:
                    99:4f
                Exponent: 65537 (0x10001)
        X509v3 extensions:
            X509v3 Subject Key Identifier: 
                CC:5E:C9:EC:AE:05:FF:3C:08:64:3C:8A:75:6A:7F:DF:08:A8:FE:A9
            X509v3 Authority Key Identifier: 
                keyid:CC:5E:C9:EC:AE:05:FF:3C:08:64:3C:8A:75:6A:7F:DF:08:A8:FE:A9

            X509v3 Basic Constraints: critical
                CA:TRUE
    Signature Algorithm: sha256WithRSAEncryption
         86:d4:bc:01:57:77:83:c2:2f:f4:30:76:33:57:d1:81:7f:8a:
         f6:32:ff:58:a7:73:85:50:68:29:be:07:b5:a8:ba:62:d5:26:
         83:60:ff:20:00:c7:3e:80:ad:e6:14:7a:27:c4:75:25:50:cb:
         b7:1f:51:f0:f6:71:d1:ed:6e:e7:d5:61:a4:d0:1e:25:04:e8:
         d8:40:b3:2b:39:5c:93:ee:42:d4:10:ff:a2:00:d9:bd:10:1b:
         1d:56:9f:7c:26:97:25:96:01:93:84:2e:29:5c:18:ec:38:a8:
         27:53:44:22:ae:af:7b:b9:89:02:c0:80:cd:c6:f7:ad:ba:19:
         cc:42:d7:65:c3:85:0b:68:d2:90:0c:c2:72:84:ff:a6:5f:4b:
         8c:53:73:19:32:f5:07:af:f6:17:ce:76:02:63:ff:06:84:2d:
         0f:ef:dc:94:0d:2c:5e:f9:48:1d:f4:89:ae:2e:06:cc:e4:a5:
         8c:3b:4d:63:df:de:f4:49:2e:8e:9b:93:cb:9d:65:cd:f2:a4:
         59:a3:14:dd:dc:b0:45:ed:83:e8:4b:ea:fe:d4:aa:f7:5c:d1:
         1e:98:e4:d6:ca:99:3b:40:4f:7b:5a:fa:3f:ab:92:2b:9c:eb:
         db:d1:4d:d7:99:34:e4:ab:ae:6c:96:8b:8d:17:60:22:79:51:
         73:88:20:e1
-----BEGIN CERTIFICATE-----
MIIDvzCCAqegAwIBAgIUCbcQt3EsEDYBVPltGyHUfjbx6VEwDQYJKoZIhvcNAQEL
BQAwbzELMAkGA1UEBhMCVUExDjAMBgNVBAgMBURlYnVnMRIwEAYDVQQKDAlGbG93
Q3J5cHQxFzAVBgNVBAMMDmZsb3djcnlwdC50ZXN0MSMwIQYJKoZIhvcNAQkBFhRh
ZG1pbkBmbG93Y3J5cHQudGVzdDAeFw0yMTA0MjkwODIwMjdaFw00MTA0MjQwODIw
MjdaMG8xCzAJBgNVBAYTAlVBMQ4wDAYDVQQIDAVEZWJ1ZzESMBAGA1UECgwJRmxv
d0NyeXB0MRcwFQYDVQQDDA5mbG93Y3J5cHQudGVzdDEjMCEGCSqGSIb3DQEJARYU
YWRtaW5AZmxvd2NyeXB0LnRlc3QwggEiMA0GCSqGSIb3DQEBAQUAA4IBDwAwggEK
AoIBAQDL56kLHqxEoHu5RotwJX5kREH/48vgRIARW24I4cB4P09mmnk1P7dKX39G
NvpC7VuD/UR+Fp+Wdk6JAyUl7Zd7TRRchLB5Pk7Hy4XQaTWXvHNbBbBvaiUvggbv
A+s+O/+3gIa8GkxuRcPTUwfTwTeL225DXEhjLWjT/ZGiJairVQYoMVHZBIaenp6N
PMkd6sjj+hRuYT+Mpvf7UFfozt1UlRwJxE/Lxsqo89tdiWRvmFS7AO/HK6MyZQUp
hi5ZTMz6MaBAsy68kVMwdVTPlp5teB91YjXp9bspXlbORRvsOB3jrT/ZyGbEgSwe
hSU9GvwOqqUtHkQV7K0dmufKhZlPAgMBAAGjUzBRMB0GA1UdDgQWBBTMXsnsrgX/
PAhkPIp1an/fCKj+qTAfBgNVHSMEGDAWgBTMXsnsrgX/PAhkPIp1an/fCKj+qTAP
BgNVHRMBAf8EBTADAQH/MA0GCSqGSIb3DQEBCwUAA4IBAQCG1LwBV3eDwi/0MHYz
V9GBf4r2Mv9Yp3OFUGgpvge1qLpi1SaDYP8gAMc+gK3mFHonxHUlUMu3H1Hw9nHR
7W7n1WGk0B4lBOjYQLMrOVyT7kLUEP+iANm9EBsdVp98JpcllgGThC4pXBjsOKgn
U0Qirq97uYkCwIDNxvetuhnMQtdlw4ULaNKQDMJyhP+mX0uMU3MZMvUHr/YXznYC
Y/8GhC0P79yUDSxe+Ugd9ImuLgbM5KWMO01j3970SS6Om5PLnWXN8qRZoxTd3LBF
7YPoS+r+1Kr3XNEemOTWypk7QE97Wvo/q5IrnOvb0U3XmTTkq65slouNF2AieVFz
iCDh
-----END CERTIFICATE-----
