Certificate:
    Data:
        Version: 3 (0x2)
        Serial Number:
            50:a9:08:b1:13:d7:67:48:22:05:86:22:10:54:74:56:88:60:61:74
        Signature Algorithm: sha256WithRSAEncryption
        Issuer: C=UA, ST=Kirovograd region, O=FOP Bondarenko Denys Serhiiovych, OU=CA, CN=denbond7.com/emailAddress=admin@denbond7.com
        Validity
            Not Before: Jan 29 06:57:23 2021 GMT
            Not After : Jan 29 06:57:23 2024 GMT
        Subject: C=UA, ST=Kirovograd region, O=FOP Bondarenko Denys Serhiiovych, OU=CA, CN=denbond7.com/emailAddress=admin@denbond7.com
        Subject Public Key Info:
            Public Key Algorithm: rsaEncryption
                RSA Public-Key: (2048 bit)
                Modulus:
                    00:bd:b3:ce:c0:5d:a3:42:71:ab:2c:42:52:fe:6a:
                    c0:e9:99:88:3c:0f:55:62:a8:16:bb:51:c6:a2:17:
                    af:43:2c:07:87:b5:06:b5:0d:6e:24:22:21:72:86:
                    c8:ce:2f:74:1d:9b:f5:14:53:fe:36:b0:77:dd:42:
                    a7:53:d3:93:33:bb:91:3c:ab:44:c8:97:78:27:31:
                    80:bb:55:6f:3d:e2:dd:f2:b2:70:77:39:04:71:fb:
                    80:b1:f1:10:86:00:97:54:d5:35:fe:37:f1:16:e9:
                    ba:c1:cf:0a:ae:5a:dd:5a:34:a9:5b:ca:8d:a1:e4:
                    bb:a9:18:3f:22:e6:cb:85:cb:cd:61:88:73:1c:0f:
                    80:99:59:35:06:ec:e6:3b:cc:a8:75:4b:78:62:ab:
                    4c:cc:8f:3d:33:8f:d9:14:e0:22:70:59:cf:93:69:
                    f9:c8:01:10:f4:31:12:cd:ee:68:b0:71:c3:8c:7e:
                    a5:ae:86:ce:30:d1:b3:d6:46:2b:29:5f:5a:e5:0c:
                    8a:e1:39:a9:b2:ae:ac:8a:69:d4:55:5f:0b:78:ac:
                    01:42:28:1d:31:54:22:93:2a:9f:c5:92:4e:40:7b:
                    9e:67:26:90:fd:da:2d:27:24:e2:89:b2:6a:3c:99:
                    7e:04:80:8a:f6:07:87:a6:41:99:9c:71:70:a8:dc:
                    38:cf
                Exponent: 65537 (0x10001)
        X509v3 extensions:
            X509v3 Subject Key Identifier: 
                66:99:F9:CC:F0:2E:19:62:66:7D:34:3D:CC:10:76:13:4D:17:2C:18
            X509v3 Authority Key Identifier: 
                keyid:66:99:F9:CC:F0:2E:19:62:66:7D:34:3D:CC:10:76:13:4D:17:2C:18

            X509v3 Basic Constraints: critical
                CA:TRUE
    Signature Algorithm: sha256WithRSAEncryption
         39:38:fb:1a:c6:a5:24:c2:ed:36:dd:08:67:ca:a2:65:2c:71:
         11:59:e0:18:76:01:31:0f:c4:ac:4c:62:f1:78:49:99:34:89:
         3e:15:a5:08:e2:ce:c0:5b:27:f0:df:1a:2a:c8:32:a7:8d:3f:
         d3:29:91:d7:de:b7:78:63:72:c0:e8:17:b5:c8:4a:a9:35:84:
         aa:96:ed:ae:8a:38:5d:06:4d:74:e9:67:c5:74:c0:66:66:6f:
         ec:14:75:8b:16:52:84:cf:71:99:89:a2:6c:88:35:b9:cf:bc:
         5d:ed:44:26:26:23:36:bd:94:78:b9:fd:20:57:69:ee:f2:4d:
         f4:9a:5f:de:97:3d:98:b8:e8:d9:c0:df:90:1b:b6:94:1d:77:
         7f:11:a2:d3:ad:e5:c7:f9:b0:e3:ae:9a:34:4e:f7:51:51:57:
         b6:a7:b9:74:c6:84:02:63:8f:72:1e:5e:0e:6d:6c:99:8d:95:
         47:e3:42:c2:0f:02:b4:c7:ce:17:6a:78:2e:b2:89:2f:84:45:
         b6:56:d8:af:ae:d7:18:1a:21:89:34:f9:e0:7f:ef:ed:00:cd:
         f4:e1:9b:d7:f4:99:31:1f:4d:f7:b5:6b:d5:80:4f:b9:b9:96:
         e0:a2:c7:01:aa:0b:9f:08:1e:28:0d:4c:3d:42:e0:ed:96:bd:
         30:70:b2:a9
-----BEGIN CERTIFICATE-----
MIIEGTCCAwGgAwIBAgIUUKkIsRPXZ0giBYYiEFR0VohgYXQwDQYJKoZIhvcNAQEL
BQAwgZsxCzAJBgNVBAYTAlVBMRowGAYDVQQIDBFLaXJvdm9ncmFkIHJlZ2lvbjEp
MCcGA1UECgwgRk9QIEJvbmRhcmVua28gRGVueXMgU2VyaGlpb3Z5Y2gxCzAJBgNV
BAsMAkNBMRUwEwYDVQQDDAxkZW5ib25kNy5jb20xITAfBgkqhkiG9w0BCQEWEmFk
bWluQGRlbmJvbmQ3LmNvbTAeFw0yMTAxMjkwNjU3MjNaFw0yNDAxMjkwNjU3MjNa
MIGbMQswCQYDVQQGEwJVQTEaMBgGA1UECAwRS2lyb3ZvZ3JhZCByZWdpb24xKTAn
BgNVBAoMIEZPUCBCb25kYXJlbmtvIERlbnlzIFNlcmhpaW92eWNoMQswCQYDVQQL
DAJDQTEVMBMGA1UEAwwMZGVuYm9uZDcuY29tMSEwHwYJKoZIhvcNAQkBFhJhZG1p
bkBkZW5ib25kNy5jb20wggEiMA0GCSqGSIb3DQEBAQUAA4IBDwAwggEKAoIBAQC9
s87AXaNCcassQlL+asDpmYg8D1ViqBa7UcaiF69DLAeHtQa1DW4kIiFyhsjOL3Qd
m/UUU/42sHfdQqdT05Mzu5E8q0TIl3gnMYC7VW894t3ysnB3OQRx+4Cx8RCGAJdU
1TX+N/EW6brBzwquWt1aNKlbyo2h5LupGD8i5suFy81hiHMcD4CZWTUG7OY7zKh1
S3hiq0zMjz0zj9kU4CJwWc+TafnIARD0MRLN7miwccOMfqWuhs4w0bPWRispX1rl
DIrhOamyrqyKadRVXwt4rAFCKB0xVCKTKp/Fkk5Ae55nJpD92i0nJOKJsmo8mX4E
gIr2B4emQZmccXCo3DjPAgMBAAGjUzBRMB0GA1UdDgQWBBRmmfnM8C4ZYmZ9ND3M
EHYTTRcsGDAfBgNVHSMEGDAWgBRmmfnM8C4ZYmZ9ND3MEHYTTRcsGDAPBgNVHRMB
Af8EBTADAQH/MA0GCSqGSIb3DQEBCwUAA4IBAQA5OPsaxqUkwu023QhnyqJlLHER
WeAYdgExD8SsTGLxeEmZNIk+FaUI4s7AWyfw3xoqyDKnjT/TKZHX3rd4Y3LA6Be1
yEqpNYSqlu2uijhdBk106WfFdMBmZm/sFHWLFlKEz3GZiaJsiDW5z7xd7UQmJiM2
vZR4uf0gV2nu8k30ml/elz2YuOjZwN+QG7aUHXd/EaLTreXH+bDjrpo0TvdRUVe2
p7l0xoQCY49yHl4ObWyZjZVH40LCDwK0x84XangusokvhEW2VtivrtcYGiGJNPng
f+/tAM304ZvX9JkxH033tWvVgE+5uZbgoscBqgufCB4oDUw9QuDtlr0wcLKp
-----END CERTIFICATE-----
