Certificate:
    Data:
        Version: 3 (0x2)
        Serial Number:
            79:4a:f2:1e:00:d0:32:65:89:9a:74:06:16:6c:d1:14:02:a5:76:f4
        Signature Algorithm: sha256WithRSAEncryption
        Issuer: C=CZ, ST=Debug, O=FlowCrypt, OU=CA, CN=flowcrypt.test/emailAddress=admin@flowcrypt.test
        Validity
            Not Before: May  3 06:33:37 2021 GMT
            Not After : Apr 28 06:33:37 2041 GMT
        Subject: C=CZ, ST=Debug, O=FlowCrypt, OU=CA, CN=flowcrypt.test/emailAddress=admin@flowcrypt.test
        Subject Public Key Info:
            Public Key Algorithm: rsaEncryption
                RSA Public-Key: (2048 bit)
                Modulus:
                    00:da:2f:0f:ca:5e:05:dd:b9:d5:97:5f:07:21:6d:
                    53:df:e1:25:d4:2e:4a:31:26:ba:30:f2:70:5f:20:
                    2d:8f:43:d8:a1:0d:0a:55:17:5c:e1:27:65:e9:19:
                    db:05:f1:17:c9:9f:3a:cb:9b:24:da:2b:dd:9c:98:
                    89:41:ab:85:4d:ad:a3:b2:c1:3a:14:36:e1:af:4a:
                    58:4e:ce:9c:f7:43:98:11:d9:7e:d9:f3:38:0d:20:
                    70:93:48:58:f6:f9:81:fb:a1:1c:1c:70:db:b6:86:
                    c1:7d:d3:df:f0:c7:d4:5f:7b:c8:e5:25:30:91:a6:
                    5a:95:35:83:43:68:23:46:a2:d1:5b:b4:f8:0f:e3:
                    d3:e8:fb:c7:14:00:07:bc:48:1b:80:8a:35:94:12:
                    f4:72:b0:ae:25:f3:7e:21:fb:fa:89:4b:60:64:fb:
                    c0:4b:17:63:88:69:f6:f5:07:ec:b5:e2:f2:65:23:
                    79:41:cd:51:a9:71:1a:3a:60:c5:71:40:f5:04:4c:
                    cc:fe:a2:2d:47:17:04:2d:b7:f9:87:ce:f4:7e:41:
                    d9:54:68:e4:60:93:42:13:61:3f:07:53:6c:3a:bb:
                    62:de:a8:62:0e:79:73:c7:f2:7a:a5:d3:d6:3c:9a:
                    42:c1:c8:07:a0:b5:74:e0:ed:3a:87:58:47:02:4d:
                    56:c9
                Exponent: 65537 (0x10001)
        X509v3 extensions:
            X509v3 Subject Key Identifier: 
                57:1B:70:94:B3:E4:B5:29:FA:51:9C:3F:77:5A:8F:15:F8:82:1A:B6
            X509v3 Authority Key Identifier: 
                keyid:57:1B:70:94:B3:E4:B5:29:FA:51:9C:3F:77:5A:8F:15:F8:82:1A:B6

            X509v3 Basic Constraints: critical
                CA:TRUE
    Signature Algorithm: sha256WithRSAEncryption
         2f:e9:ee:c1:b4:b0:ab:13:db:8a:1b:02:a5:e9:4d:30:68:12:
         1c:40:35:7f:60:d5:5f:f7:1a:c6:de:aa:6b:d8:48:40:e4:9f:
         e5:11:64:15:63:ec:83:34:bf:dc:47:ab:d1:2c:af:3d:e3:d7:
         29:22:e0:07:2c:0c:ba:77:71:32:28:c0:99:a3:01:93:e4:e9:
         57:cb:97:14:4c:ae:31:a0:76:ca:1c:b1:21:09:3e:6a:12:38:
         b7:b6:21:9d:7a:e0:1e:41:55:5e:a6:ed:46:61:a8:46:56:bb:
         96:16:4a:a6:8a:6c:79:c8:0f:08:30:bc:67:1d:17:5f:c5:87:
         cb:61:b2:13:76:b8:ed:da:91:42:6a:ab:ad:1a:bd:de:93:bd:
         bb:ec:a8:fc:6f:85:6e:71:2d:f9:4e:26:3b:40:c4:ab:bd:bb:
         34:e1:4b:7c:e9:a9:06:e0:e7:a6:cc:f0:f7:d6:6f:99:92:79:
         30:b8:51:12:01:fd:b6:77:ec:51:82:2e:f3:cb:01:6e:08:f7:
         c1:e4:07:5f:50:41:0d:30:2f:30:1a:9a:9d:31:8b:91:66:40:
         cf:43:4b:6f:02:73:cf:db:84:74:ad:f6:cb:0e:c9:11:cb:9f:
         96:db:bc:7d:7d:60:6f:67:e2:93:0f:87:74:96:98:4d:29:43:
         b2:bb:fa:a3
-----BEGIN CERTIFICATE-----
MIID2TCCAsGgAwIBAgIUeUryHgDQMmWJmnQGFmzRFAKldvQwDQYJKoZIhvcNAQEL
BQAwfDELMAkGA1UEBhMCQ1oxDjAMBgNVBAgMBURlYnVnMRIwEAYDVQQKDAlGbG93
Q3J5cHQxCzAJBgNVBAsMAkNBMRcwFQYDVQQDDA5mbG93Y3J5cHQudGVzdDEjMCEG
CSqGSIb3DQEJARYUYWRtaW5AZmxvd2NyeXB0LnRlc3QwHhcNMjEwNTAzMDYzMzM3
WhcNNDEwNDI4MDYzMzM3WjB8MQswCQYDVQQGEwJDWjEOMAwGA1UECAwFRGVidWcx
EjAQBgNVBAoMCUZsb3dDcnlwdDELMAkGA1UECwwCQ0ExFzAVBgNVBAMMDmZsb3dj
cnlwdC50ZXN0MSMwIQYJKoZIhvcNAQkBFhRhZG1pbkBmbG93Y3J5cHQudGVzdDCC
ASIwDQYJKoZIhvcNAQEBBQADggEPADCCAQoCggEBANovD8peBd251ZdfByFtU9/h
JdQuSjEmujDycF8gLY9D2KENClUXXOEnZekZ2wXxF8mfOsubJNor3ZyYiUGrhU2t
o7LBOhQ24a9KWE7OnPdDmBHZftnzOA0gcJNIWPb5gfuhHBxw27aGwX3T3/DH1F97
yOUlMJGmWpU1g0NoI0ai0Vu0+A/j0+j7xxQAB7xIG4CKNZQS9HKwriXzfiH7+olL
YGT7wEsXY4hp9vUH7LXi8mUjeUHNUalxGjpgxXFA9QRMzP6iLUcXBC23+YfO9H5B
2VRo5GCTQhNhPwdTbDq7Yt6oYg55c8fyeqXT1jyaQsHIB6C1dODtOodYRwJNVskC
AwEAAaNTMFEwHQYDVR0OBBYEFFcbcJSz5LUp+lGcP3dajxX4ghq2MB8GA1UdIwQY
MBaAFFcbcJSz5LUp+lGcP3dajxX4ghq2MA8GA1UdEwEB/wQFMAMBAf8wDQYJKoZI
hvcNAQELBQADggEBAC/p7sG0sKsT24obAqXpTTBoEhxANX9g1V/3GsbeqmvYSEDk
n+URZBVj7IM0v9xHq9Esrz3j1yki4AcsDLp3cTIowJmjAZPk6VfLlxRMrjGgdsoc
sSEJPmoSOLe2IZ164B5BVV6m7UZhqEZWu5YWSqaKbHnIDwgwvGcdF1/Fh8thshN2
uO3akUJqq60avd6TvbvsqPxvhW5xLflOJjtAxKu9uzThS3zpqQbg56bM8PfWb5mS
eTC4URIB/bZ37FGCLvPLAW4I98HkB19QQQ0wLzAamp0xi5FmQM9DS28Cc8/bhHSt
9ssOyRHLn5bbvH19YG9n4pMPh3SWmE0pQ7K7+qM=
-----END CERTIFICATE-----
