Certificate:
    Data:
        Version: 3 (0x2)
        Serial Number:
            79:4a:f2:1e:00:d0:32:65:89:9a:74:06:16:6c:d1:14:02:a5:76:f6
        Signature Algorithm: sha256WithRSAEncryption
        Issuer: C=CZ, ST=Debug, O=FlowCrypt, OU=CA, CN=flowcrypt.test/emailAddress=admin@flowcrypt.test
        Validity
            Not Before: Jul 28 08:38:17 2021 GMT
            Not After : Jul 26 08:38:17 2031 GMT
        Subject: C=CZ, ST=Debug, O=FlowCrypt, CN=localhost/emailAddress=admin@flowcrypt.test
        Subject Public Key Info:
            Public Key Algorithm: rsaEncryption
                RSA Public-Key: (2048 bit)
                Modulus:
                    00:ad:b8:c9:5c:59:87:7a:08:56:9d:24:53:f2:c4:
                    6b:3d:ce:9c:57:23:e7:ef:bd:f8:ce:d6:bb:7a:45:
                    8d:e6:86:7c:c5:b4:08:2e:c5:73:38:bf:bf:3e:ab:
                    5d:7b:09:c8:a5:40:cb:58:d6:41:7f:06:8f:94:53:
                    06:61:bb:a0:28:06:77:c5:ce:25:7c:98:fe:f9:68:
                    b5:0c:d2:70:79:5c:f5:7b:43:99:d8:51:ed:7e:b3:
                    8d:ed:32:61:27:d8:8b:56:ee:42:a6:a8:cb:f5:11:
                    70:7e:6e:b9:e7:88:c0:2f:e6:0e:48:4f:fb:81:a5:
                    4a:c7:7e:c7:ab:28:fd:14:c4:39:da:68:cb:fe:99:
                    9b:61:0c:e4:ad:b8:5b:95:93:bd:ca:ea:38:d0:5b:
                    0d:ed:96:57:db:b3:69:d4:93:7b:47:be:9c:5b:dd:
                    6e:6c:6d:87:89:ad:90:6f:b9:3c:96:80:ac:09:52:
                    54:bd:f0:49:8b:c8:66:1c:28:ed:71:64:c0:e5:60:
                    24:39:1e:70:28:77:78:40:48:a4:a6:99:7c:98:ad:
                    40:1a:76:79:51:24:43:2e:fe:19:72:43:6a:36:e4:
                    59:13:48:93:a3:51:bc:f8:85:98:d5:42:47:4b:6a:
                    bb:c0:cf:a7:7f:c8:e3:5c:c0:85:d9:a3:26:1d:e8:
                    e2:a9
                Exponent: 65537 (0x10001)
        X509v3 extensions:
            X509v3 Basic Constraints: 
                CA:FALSE
            Netscape Comment: 
                OpenSSL Generated Certificate
            X509v3 Subject Key Identifier: 
                B9:11:F8:F7:26:1D:64:9F:0D:2B:8F:7F:1E:69:F0:B8:9B:34:3F:94
            X509v3 Authority Key Identifier: 
                keyid:57:1B:70:94:B3:E4:B5:29:FA:51:9C:3F:77:5A:8F:15:F8:82:1A:B6

            X509v3 Key Usage: 
                Digital Signature, Non Repudiation, Key Encipherment
            X509v3 Subject Alternative Name: 
                DNS:localhost, DNS:*.localhost
    Signature Algorithm: sha256WithRSAEncryption
         17:2b:64:78:9f:67:d7:b4:6e:49:7d:57:4b:b4:2a:64:f4:c3:
         07:8b:da:c7:15:a1:ea:cf:7a:fa:06:df:99:17:06:30:d0:cf:
         a0:c5:b2:b0:9d:e3:95:34:2d:1d:79:79:b7:18:b2:cb:b8:34:
         91:8a:19:3d:7e:90:08:06:42:02:8b:9b:56:b7:79:ef:50:7f:
         b7:a5:0a:b9:94:a0:51:82:d3:a9:5d:ec:79:2e:52:59:45:9f:
         a4:1f:f1:1d:d2:4f:2d:25:67:b3:45:ee:5c:95:40:b2:53:a5:
         34:0b:c6:24:8d:ed:02:b2:92:b5:db:14:24:84:a1:6a:a2:d1:
         53:52:67:a5:8f:32:a8:17:1c:7e:e7:0b:95:7d:c6:ce:4c:03:
         12:52:7f:f4:89:72:7c:05:12:f5:33:7f:98:3a:ce:9d:5a:2d:
         29:99:56:4f:15:cc:26:87:75:ba:fa:11:c1:43:0a:1c:ef:4b:
         99:6d:bd:ba:99:27:94:f5:2a:01:e5:cc:4e:2d:dc:e8:69:c0:
         86:59:06:72:f4:78:a8:f0:cb:41:33:b4:49:ad:46:5a:e5:1f:
         f2:d3:40:3f:66:99:3e:e4:27:7a:92:9c:2d:3b:ed:55:31:cd:
         2b:bc:b2:cf:bb:14:13:f3:de:d5:7b:16:77:79:38:24:ab:45:
         5a:cc:79:92
-----BEGIN CERTIFICATE-----
MIIEITCCAwmgAwIBAgIUeUryHgDQMmWJmnQGFmzRFAKldvYwDQYJKoZIhvcNAQEL
BQAwfDELMAkGA1UEBhMCQ1oxDjAMBgNVBAgMBURlYnVnMRIwEAYDVQQKDAlGbG93
Q3J5cHQxCzAJBgNVBAsMAkNBMRcwFQYDVQQDDA5mbG93Y3J5cHQudGVzdDEjMCEG
CSqGSIb3DQEJARYUYWRtaW5AZmxvd2NyeXB0LnRlc3QwHhcNMjEwNzI4MDgzODE3
WhcNMzEwNzI2MDgzODE3WjBqMQswCQYDVQQGEwJDWjEOMAwGA1UECAwFRGVidWcx
EjAQBgNVBAoMCUZsb3dDcnlwdDESMBAGA1UEAwwJbG9jYWxob3N0MSMwIQYJKoZI
hvcNAQkBFhRhZG1pbkBmbG93Y3J5cHQudGVzdDCCASIwDQYJKoZIhvcNAQEBBQAD
ggEPADCCAQoCggEBAK24yVxZh3oIVp0kU/LEaz3OnFcj5++9+M7Wu3pFjeaGfMW0
CC7Fczi/vz6rXXsJyKVAy1jWQX8Gj5RTBmG7oCgGd8XOJXyY/vlotQzScHlc9XtD
mdhR7X6zje0yYSfYi1buQqaoy/URcH5uueeIwC/mDkhP+4GlSsd+x6so/RTEOdpo
y/6Zm2EM5K24W5WTvcrqONBbDe2WV9uzadSTe0e+nFvdbmxth4mtkG+5PJaArAlS
VL3wSYvIZhwo7XFkwOVgJDkecCh3eEBIpKaZfJitQBp2eVEkQy7+GXJDajbkWRNI
k6NRvPiFmNVCR0tqu8DPp3/I41zAhdmjJh3o4qkCAwEAAaOBrDCBqTAJBgNVHRME
AjAAMCwGCWCGSAGG+EIBDQQfFh1PcGVuU1NMIEdlbmVyYXRlZCBDZXJ0aWZpY2F0
ZTAdBgNVHQ4EFgQUuRH49yYdZJ8NK49/HmnwuJs0P5QwHwYDVR0jBBgwFoAUVxtw
lLPktSn6UZw/d1qPFfiCGrYwCwYDVR0PBAQDAgXgMCEGA1UdEQQaMBiCCWxvY2Fs
aG9zdIILKi5sb2NhbGhvc3QwDQYJKoZIhvcNAQELBQADggEBABcrZHifZ9e0bkl9
V0u0KmT0wweL2scVoerPevoG35kXBjDQz6DFsrCd45U0LR15ebcYssu4NJGKGT1+
kAgGQgKLm1a3ee9Qf7elCrmUoFGC06ld7HkuUllFn6Qf8R3STy0lZ7NF7lyVQLJT
pTQLxiSN7QKykrXbFCSEoWqi0VNSZ6WPMqgXHH7nC5V9xs5MAxJSf/SJcnwFEvUz
f5g6zp1aLSmZVk8VzCaHdbr6EcFDChzvS5ltvbqZJ5T1KgHlzE4t3OhpwIZZBnL0
eKjwy0EztEmtRlrlH/LTQD9mmT7kJ3qSnC077VUxzSu8ss+7FBPz3tV7Fnd5OCSr
RVrMeZI=
-----END CERTIFICATE-----
