Certificate:
    Data:
        Version: 3 (0x2)
        Serial Number:
            79:4a:f2:1e:00:d0:32:65:89:9a:74:06:16:6c:d1:14:02:a5:76:f8
        Signature Algorithm: sha256WithRSAEncryption
        Issuer: C=CZ, ST=Debug, O=FlowCrypt, OU=CA, CN=flowcrypt.test/emailAddress=admin@flowcrypt.test
        Validity
            Not Before: Feb 23 09:20:27 2023 GMT
            Not After : Feb 20 09:20:27 2033 GMT
        Subject: C=CZ, ST=Debug, O=FlowCrypt, CN=localhost/emailAddress=admin@flowcrypt.test
        Subject Public Key Info:
            Public Key Algorithm: rsaEncryption
                Public-Key: (2048 bit)
                Modulus:
                    00:a6:9b:7f:bc:3d:87:5b:10:0d:39:15:38:ac:01:
                    88:46:38:fe:88:39:b6:22:66:19:43:71:3a:cd:9d:
                    0e:ad:d3:06:69:55:04:d6:a0:ce:53:ed:cd:4b:6d:
                    34:85:66:89:9e:11:3c:70:62:eb:2a:40:3f:f9:58:
                    0a:31:52:6e:27:bb:3e:b0:06:2e:4c:52:30:78:8a:
                    ef:90:41:e6:da:7f:a5:98:a9:18:5a:36:3a:a2:99:
                    fc:69:53:31:95:3e:f9:de:b3:79:d5:69:81:3a:0e:
                    64:ee:71:5d:e1:39:50:5d:2f:a6:eb:23:41:6c:25:
                    33:60:9d:91:a1:20:24:68:54:52:a1:46:ff:60:6d:
                    4d:df:ad:fa:fa:92:86:84:c4:a8:fc:33:97:76:60:
                    6d:2f:2c:cc:a0:9f:1e:57:b1:b5:2b:1b:d6:68:41:
                    c8:9e:d6:7e:81:fb:7c:f5:0d:db:57:a7:f2:ac:0c:
                    a8:f9:4e:8e:e1:cb:ef:99:c7:34:9e:ea:0a:e2:45:
                    e6:46:16:7c:cb:51:5c:92:a8:d6:8b:d9:9b:6a:11:
                    db:ee:e6:28:b1:68:78:bc:39:73:2c:39:14:c7:42:
                    d4:b5:70:be:d1:13:e1:5d:e8:2e:c0:79:30:86:37:
                    bc:c7:22:53:ce:c8:32:b7:3b:10:7d:22:88:d7:b8:
                    09:7b
                Exponent: 65537 (0x10001)
        X509v3 extensions:
            X509v3 Basic Constraints: 
                CA:FALSE
            Netscape Comment: 
                OpenSSL Generated Certificate
            X509v3 Subject Key Identifier: 
                B8:02:A2:0A:54:D6:B9:18:56:3F:0B:92:26:E9:F0:0F:08:28:43:64
            X509v3 Authority Key Identifier: 
                57:1B:70:94:B3:E4:B5:29:FA:51:9C:3F:77:5A:8F:15:F8:82:1A:B6
            X509v3 Key Usage: 
                Digital Signature, Non Repudiation, Key Encipherment
            X509v3 Subject Alternative Name: 
                DNS:localhost, DNS:*.localhost, DNS:flowcrypt.test, DNS:*.flowcrypt.test
    Signature Algorithm: sha256WithRSAEncryption
    Signature Value:
        77:65:62:38:3e:e1:da:7e:6a:dd:6d:20:00:81:e6:37:18:5f:
        a8:4e:94:d0:fc:f3:f1:93:65:ca:06:5e:b7:d6:e7:50:42:33:
        f7:94:c9:0b:d5:ca:d9:b7:0b:88:59:03:ed:07:16:dd:0d:04:
        2e:0f:8a:9f:7d:3c:4b:27:ef:43:8c:50:6e:ab:db:8b:38:f5:
        ce:e5:50:8a:4e:9d:24:d3:cd:03:74:3c:24:15:a8:23:21:8c:
        3f:3c:27:dc:b3:d0:c3:2e:63:a2:66:a6:04:bc:0a:9b:35:e3:
        98:a4:b4:c3:bd:72:e4:32:8b:c5:ee:3f:b5:52:41:5a:e1:88:
        e0:6b:38:15:6e:c8:c2:78:f4:ae:a3:e8:1d:d0:9c:87:3d:3f:
        df:5f:e9:cb:4f:5b:a9:f3:dc:a2:a2:ee:30:b3:93:2d:cb:30:
        b5:a5:e3:ab:9b:46:7b:e5:33:b3:f7:61:41:79:d5:b7:e6:80:
        30:39:3e:c6:4b:7a:ef:06:39:99:c5:7a:3f:f0:51:9f:60:02:
        8c:01:aa:c2:7a:98:00:f8:a3:1f:d7:f0:5d:4c:ac:a9:e3:25:
        9a:ca:db:05:2b:ba:c6:53:e1:c4:31:e4:4a:5d:19:f5:1f:a2:
        2f:18:ff:18:10:bc:e8:64:0c:1b:8f:c0:86:18:a4:2a:5c:39:
        52:f8:eb:e9
-----BEGIN CERTIFICATE-----
MIIEQzCCAyugAwIBAgIUeUryHgDQMmWJmnQGFmzRFAKldvgwDQYJKoZIhvcNAQEL
BQAwfDELMAkGA1UEBhMCQ1oxDjAMBgNVBAgMBURlYnVnMRIwEAYDVQQKDAlGbG93
Q3J5cHQxCzAJBgNVBAsMAkNBMRcwFQYDVQQDDA5mbG93Y3J5cHQudGVzdDEjMCEG
CSqGSIb3DQEJARYUYWRtaW5AZmxvd2NyeXB0LnRlc3QwHhcNMjMwMjIzMDkyMDI3
WhcNMzMwMjIwMDkyMDI3WjBqMQswCQYDVQQGEwJDWjEOMAwGA1UECAwFRGVidWcx
EjAQBgNVBAoMCUZsb3dDcnlwdDESMBAGA1UEAwwJbG9jYWxob3N0MSMwIQYJKoZI
hvcNAQkBFhRhZG1pbkBmbG93Y3J5cHQudGVzdDCCASIwDQYJKoZIhvcNAQEBBQAD
ggEPADCCAQoCggEBAKabf7w9h1sQDTkVOKwBiEY4/og5tiJmGUNxOs2dDq3TBmlV
BNagzlPtzUttNIVmiZ4RPHBi6ypAP/lYCjFSbie7PrAGLkxSMHiK75BB5tp/pZip
GFo2OqKZ/GlTMZU++d6zedVpgToOZO5xXeE5UF0vpusjQWwlM2CdkaEgJGhUUqFG
/2BtTd+t+vqShoTEqPwzl3ZgbS8szKCfHlextSsb1mhByJ7WfoH7fPUN21en8qwM
qPlOjuHL75nHNJ7qCuJF5kYWfMtRXJKo1ovZm2oR2+7mKLFoeLw5cyw5FMdC1LVw
vtET4V3oLsB5MIY3vMciU87IMrc7EH0iiNe4CXsCAwEAAaOBzjCByzAJBgNVHRME
AjAAMCwGCWCGSAGG+EIBDQQfFh1PcGVuU1NMIEdlbmVyYXRlZCBDZXJ0aWZpY2F0
ZTAdBgNVHQ4EFgQUuAKiClTWuRhWPwuSJunwDwgoQ2QwHwYDVR0jBBgwFoAUVxtw
lLPktSn6UZw/d1qPFfiCGrYwCwYDVR0PBAQDAgXgMEMGA1UdEQQ8MDqCCWxvY2Fs
aG9zdIILKi5sb2NhbGhvc3SCDmZsb3djcnlwdC50ZXN0ghAqLmZsb3djcnlwdC50
ZXN0MA0GCSqGSIb3DQEBCwUAA4IBAQB3ZWI4PuHafmrdbSAAgeY3GF+oTpTQ/PPx
k2XKBl631udQQjP3lMkL1crZtwuIWQPtBxbdDQQuD4qffTxLJ+9DjFBuq9uLOPXO
5VCKTp0k080DdDwkFagjIYw/PCfcs9DDLmOiZqYEvAqbNeOYpLTDvXLkMovF7j+1
UkFa4YjgazgVbsjCePSuo+gd0JyHPT/fX+nLT1up89yiou4ws5MtyzC1peOrm0Z7
5TOz92FBedW35oAwOT7GS3rvBjmZxXo/8FGfYAKMAarCepgA+KMf1/BdTKyp4yWa
ytsFK7rGU+HEMeRKXRn1H6IvGP8YELzoZAwbj8CGGKQqXDlS+Ovp
-----END CERTIFICATE-----
