Certificate:
    Data:
        Version: 3 (0x2)
        Serial Number:
            79:4a:f2:1e:00:d0:32:65:89:9a:74:06:16:6c:d1:14:02:a5:76:f7
        Signature Algorithm: sha256WithRSAEncryption
        Issuer: C=CZ, ST=Debug, O=FlowCrypt, OU=CA, CN=flowcrypt.test/emailAddress=admin@flowcrypt.test
        Validity
            Not Before: Feb 18 17:05:08 2023 GMT
            Not After : Feb 15 17:05:08 2033 GMT
        Subject: C=CZ, ST=Debug, O=FlowCrypt, CN=localhost/emailAddress=admin@flowcrypt.test
        Subject Public Key Info:
            Public Key Algorithm: rsaEncryption
                RSA Public-Key: (2048 bit)
                Modulus:
                    00:db:57:eb:26:5f:70:93:f8:ab:cb:90:50:86:03:
                    70:fd:94:26:e9:5f:60:33:65:c5:6b:fa:dd:30:af:
                    a9:9b:df:48:68:02:fc:15:5a:19:1a:4a:a1:78:4a:
                    7e:0a:f5:33:3e:f2:4b:c5:57:b7:2f:f8:50:f3:5f:
                    01:70:6e:76:54:88:9f:aa:dd:01:7f:21:16:a5:ea:
                    2f:da:03:b0:cb:1b:8d:92:35:5c:14:d8:e2:9b:18:
                    d7:26:b1:59:b7:fc:e6:9a:ba:9c:c7:dc:4d:ca:70:
                    77:e1:89:17:ef:22:aa:0c:12:9b:65:03:de:1a:dc:
                    f6:f1:fe:dd:f4:0b:26:c6:92:a6:27:3c:78:30:f7:
                    a9:0a:f6:fb:c1:04:aa:89:42:0c:1e:af:a2:b3:ce:
                    00:27:d0:7a:fb:10:a5:e9:c6:45:a0:72:06:6f:3e:
                    fb:d3:96:7f:1a:35:ec:2f:8a:5c:59:63:76:c2:69:
                    0a:35:23:a7:a5:33:1f:e2:cd:07:01:50:42:f3:04:
                    b5:3f:a1:c9:af:b0:6c:d7:50:0c:f4:f7:fc:d0:80:
                    7a:45:88:13:0a:1f:42:74:c1:da:e9:74:5f:0a:58:
                    a2:60:f5:81:dd:7c:27:95:ed:15:f4:e9:14:9d:58:
                    d4:76:19:28:cc:59:13:aa:2d:cf:74:d6:ca:9a:cb:
                    bb:a1
                Exponent: 65537 (0x10001)
        X509v3 extensions:
            X509v3 Basic Constraints: 
                CA:FALSE
            Netscape Comment: 
                OpenSSL Generated Certificate
            X509v3 Subject Key Identifier: 
                B5:E4:E1:7F:F2:BF:EB:FF:55:83:A9:5A:07:AD:AE:69:F1:5D:7E:11
            X509v3 Authority Key Identifier: 
                keyid:57:1B:70:94:B3:E4:B5:29:FA:51:9C:3F:77:5A:8F:15:F8:82:1A:B6

            X509v3 Key Usage: 
                Digital Signature, Non Repudiation, Key Encipherment
            X509v3 Subject Alternative Name: 
                DNS:localhost, DNS:*.localhost, DNS:*.flowcrypt.test
    Signature Algorithm: sha256WithRSAEncryption
         77:b2:2e:12:90:21:3b:c8:32:32:66:a2:9c:70:3b:ea:19:60:
         6f:af:7f:f3:d1:c2:95:35:7a:ad:4b:35:d8:d3:46:ce:f5:89:
         aa:f0:01:62:95:9f:af:7c:de:67:5b:3d:23:52:ee:40:ed:a5:
         0a:f9:05:8a:a5:22:bc:b7:52:ec:b5:ae:08:c9:05:09:4b:03:
         7d:e1:fd:d5:95:bb:d3:c7:de:87:6c:63:b4:79:67:cb:80:21:
         a0:c6:ca:8f:1d:7d:90:13:d0:f1:90:80:a1:8c:4f:34:25:81:
         cf:63:cf:29:6d:1b:bc:a2:8e:90:bf:21:68:c7:6a:b3:5c:84:
         eb:25:ca:06:75:3e:b3:7b:db:06:b6:05:c5:20:af:72:b7:2d:
         d2:2d:a4:41:55:58:a2:f2:ea:51:9e:27:fe:ec:d7:6f:40:dc:
         e9:5f:4c:b5:94:5a:c5:83:19:fd:38:e5:63:ca:55:89:50:6f:
         69:db:d9:86:56:fd:07:fe:68:69:d8:53:7e:1e:44:8e:40:a1:
         20:3d:97:8f:85:0e:28:2b:50:b4:78:38:6c:69:a2:ae:9d:00:
         b7:fc:6e:25:b9:09:ef:dd:f6:e0:4d:8f:d6:7a:a7:da:81:ec:
         ca:bb:4e:cf:40:37:f0:a7:66:8e:7d:c6:9f:fc:6f:32:0d:e4:
         83:32:f8:21
-----BEGIN CERTIFICATE-----
MIIEMzCCAxugAwIBAgIUeUryHgDQMmWJmnQGFmzRFAKldvcwDQYJKoZIhvcNAQEL
BQAwfDELMAkGA1UEBhMCQ1oxDjAMBgNVBAgMBURlYnVnMRIwEAYDVQQKDAlGbG93
Q3J5cHQxCzAJBgNVBAsMAkNBMRcwFQYDVQQDDA5mbG93Y3J5cHQudGVzdDEjMCEG
CSqGSIb3DQEJARYUYWRtaW5AZmxvd2NyeXB0LnRlc3QwHhcNMjMwMjE4MTcwNTA4
WhcNMzMwMjE1MTcwNTA4WjBqMQswCQYDVQQGEwJDWjEOMAwGA1UECAwFRGVidWcx
EjAQBgNVBAoMCUZsb3dDcnlwdDESMBAGA1UEAwwJbG9jYWxob3N0MSMwIQYJKoZI
hvcNAQkBFhRhZG1pbkBmbG93Y3J5cHQudGVzdDCCASIwDQYJKoZIhvcNAQEBBQAD
ggEPADCCAQoCggEBANtX6yZfcJP4q8uQUIYDcP2UJulfYDNlxWv63TCvqZvfSGgC
/BVaGRpKoXhKfgr1Mz7yS8VXty/4UPNfAXBudlSIn6rdAX8hFqXqL9oDsMsbjZI1
XBTY4psY1yaxWbf85pq6nMfcTcpwd+GJF+8iqgwSm2UD3hrc9vH+3fQLJsaSpic8
eDD3qQr2+8EEqolCDB6vorPOACfQevsQpenGRaByBm8++9OWfxo17C+KXFljdsJp
CjUjp6UzH+LNBwFQQvMEtT+hya+wbNdQDPT3/NCAekWIEwofQnTB2ul0XwpYomD1
gd18J5XtFfTpFJ1Y1HYZKMxZE6otz3TWyprLu6ECAwEAAaOBvjCBuzAJBgNVHRME
AjAAMCwGCWCGSAGG+EIBDQQfFh1PcGVuU1NMIEdlbmVyYXRlZCBDZXJ0aWZpY2F0
ZTAdBgNVHQ4EFgQUteThf/K/6/9Vg6laB62uafFdfhEwHwYDVR0jBBgwFoAUVxtw
lLPktSn6UZw/d1qPFfiCGrYwCwYDVR0PBAQDAgXgMDMGA1UdEQQsMCqCCWxvY2Fs
aG9zdIILKi5sb2NhbGhvc3SCECouZmxvd2NyeXB0LnRlc3QwDQYJKoZIhvcNAQEL
BQADggEBAHeyLhKQITvIMjJmopxwO+oZYG+vf/PRwpU1eq1LNdjTRs71iarwAWKV
n6983mdbPSNS7kDtpQr5BYqlIry3Uuy1rgjJBQlLA33h/dWVu9PH3odsY7R5Z8uA
IaDGyo8dfZAT0PGQgKGMTzQlgc9jzyltG7yijpC/IWjHarNchOslygZ1PrN72wa2
BcUgr3K3LdItpEFVWKLy6lGeJ/7s129A3OlfTLWUWsWDGf045WPKVYlQb2nb2YZW
/Qf+aGnYU34eRI5AoSA9l4+FDigrULR4OGxpoq6dALf8biW5Ce/d9uBNj9Z6p9qB
7Mq7Ts9AN/CnZo59xp/8bzIN5IMy+CE=
-----END CERTIFICATE-----
