Certificate:
    Data:
        Version: 3 (0x2)
        Serial Number:
            79:4a:f2:1e:00:d0:32:65:89:9a:74:06:16:6c:d1:14:02:a5:76:f6
        Signature Algorithm: sha256WithRSAEncryption
        Issuer: C=CZ, ST=Debug, O=FlowCrypt, OU=CA, CN=flowcrypt.test/emailAddress=admin@flowcrypt.test
        Validity
            Not Before: May  3 07:10:21 2021 GMT
            Not After : May  1 07:10:21 2031 GMT
        Subject: C=CZ, ST=Debug, O=FlowCrypt, CN=localhost/emailAddress=admin@flowcrypt.test
        Subject Public Key Info:
            Public Key Algorithm: rsaEncryption
                RSA Public-Key: (2048 bit)
                Modulus:
                    00:c7:ff:8e:35:c3:61:38:a6:3d:df:f2:4e:ee:b3:
                    db:b4:43:77:5f:09:68:cb:be:b6:82:7a:17:4b:f8:
                    ba:26:fa:39:27:d3:e4:e9:75:ff:34:ce:f4:06:3f:
                    5f:8a:7d:3f:63:ce:da:c8:0f:43:84:de:45:d0:9c:
                    61:83:2d:9e:9e:8e:04:8b:e3:d9:d8:39:3f:3d:25:
                    5c:c4:b8:0f:9e:eb:51:c7:2f:5a:16:67:c7:7c:06:
                    b4:d2:73:35:f6:1a:ef:38:14:45:96:bf:3b:2b:ca:
                    8e:fa:c3:82:f3:4c:a4:56:9b:b7:50:90:d3:89:b2:
                    4a:e8:7d:a3:06:2a:44:31:b2:f0:6a:3f:d2:ab:f0:
                    1c:47:b2:cd:be:a8:e4:33:ea:2e:5a:e5:6c:63:53:
                    c6:11:91:21:95:35:33:1c:fb:b0:68:5e:7a:6a:1f:
                    9b:b6:93:e7:76:c6:13:c3:93:2c:85:0d:84:66:2d:
                    b1:f8:4f:f9:e3:f2:de:bc:9a:85:61:c5:c7:39:6f:
                    2a:46:d5:de:3b:af:46:e0:08:94:fb:7a:de:4c:92:
                    fe:41:29:50:de:6b:32:ea:5b:b0:90:59:95:84:29:
                    01:b0:77:4c:5a:48:48:a3:33:cf:0a:5d:1a:cd:86:
                    c3:01:17:c7:d3:98:6c:5e:56:ef:e4:74:a0:27:3f:
                    8e:c3
                Exponent: 65537 (0x10001)
        X509v3 extensions:
            X509v3 Basic Constraints: 
                CA:FALSE
            Netscape Comment: 
                OpenSSL Generated Certificate
            X509v3 Subject Key Identifier: 
                8F:2C:7C:57:2E:1E:03:65:EF:86:7E:AE:7F:BB:19:0E:0C:92:99:24
            X509v3 Authority Key Identifier: 
                keyid:57:1B:70:94:B3:E4:B5:29:FA:51:9C:3F:77:5A:8F:15:F8:82:1A:B6

            X509v3 Key Usage: 
                Digital Signature, Non Repudiation, Key Encipherment
            X509v3 Subject Alternative Name: 
                DNS:localhost
    Signature Algorithm: sha256WithRSAEncryption
         c5:13:26:a7:b8:7a:a5:d0:fc:08:7e:9d:9a:65:d1:95:b3:1a:
         ae:85:89:bf:e2:74:65:82:62:8d:fe:cc:80:89:56:66:82:29:
         bc:21:2f:ee:be:44:1b:9d:19:5d:65:20:42:ea:17:61:c9:45:
         9b:ee:84:54:22:89:07:64:40:0f:4b:ea:29:30:88:0c:6e:44:
         7e:5d:27:3e:03:15:a6:e4:fe:07:6d:58:27:f0:30:da:2c:ef:
         64:6a:53:d2:e1:42:87:cf:60:03:b1:e6:4f:06:0b:b8:60:c6:
         94:2b:db:fb:91:fa:89:86:d5:b7:06:4d:48:5c:d8:15:7f:1f:
         d4:85:51:ef:62:68:c7:7d:3e:b7:c6:08:28:59:ca:62:02:39:
         1c:9f:ae:06:52:0f:be:52:70:40:13:41:ed:19:e2:0f:fc:c2:
         50:15:77:b7:5c:0d:5d:eb:9c:3b:60:f8:fe:a4:cd:7e:8f:63:
         dc:33:5f:02:03:4b:dd:48:fb:36:88:ce:1f:80:0a:4f:a7:59:
         95:e8:e8:01:7a:d0:d7:56:77:8c:23:23:60:48:5a:fe:c2:72:
         a8:ab:53:0e:56:d0:d1:70:2d:d3:27:e0:99:87:44:11:40:fe:
         c7:37:f4:3c:04:22:e6:7d:09:a4:12:9e:3a:a0:8c:bd:fa:6a:
         3c:10:d4:8e
-----BEGIN CERTIFICATE-----
MIIEFDCCAvygAwIBAgIUeUryHgDQMmWJmnQGFmzRFAKldvYwDQYJKoZIhvcNAQEL
BQAwfDELMAkGA1UEBhMCQ1oxDjAMBgNVBAgMBURlYnVnMRIwEAYDVQQKDAlGbG93
Q3J5cHQxCzAJBgNVBAsMAkNBMRcwFQYDVQQDDA5mbG93Y3J5cHQudGVzdDEjMCEG
CSqGSIb3DQEJARYUYWRtaW5AZmxvd2NyeXB0LnRlc3QwHhcNMjEwNTAzMDcxMDIx
WhcNMzEwNTAxMDcxMDIxWjBqMQswCQYDVQQGEwJDWjEOMAwGA1UECAwFRGVidWcx
EjAQBgNVBAoMCUZsb3dDcnlwdDESMBAGA1UEAwwJbG9jYWxob3N0MSMwIQYJKoZI
hvcNAQkBFhRhZG1pbkBmbG93Y3J5cHQudGVzdDCCASIwDQYJKoZIhvcNAQEBBQAD
ggEPADCCAQoCggEBAMf/jjXDYTimPd/yTu6z27RDd18JaMu+toJ6F0v4uib6OSfT
5Ol1/zTO9AY/X4p9P2PO2sgPQ4TeRdCcYYMtnp6OBIvj2dg5Pz0lXMS4D57rUccv
WhZnx3wGtNJzNfYa7zgURZa/OyvKjvrDgvNMpFabt1CQ04mySuh9owYqRDGy8Go/
0qvwHEeyzb6o5DPqLlrlbGNTxhGRIZU1Mxz7sGheemofm7aT53bGE8OTLIUNhGYt
sfhP+ePy3ryahWHFxzlvKkbV3juvRuAIlPt63kyS/kEpUN5rMupbsJBZlYQpAbB3
TFpISKMzzwpdGs2GwwEXx9OYbF5W7+R0oCc/jsMCAwEAAaOBnzCBnDAJBgNVHRME
AjAAMCwGCWCGSAGG+EIBDQQfFh1PcGVuU1NMIEdlbmVyYXRlZCBDZXJ0aWZpY2F0
ZTAdBgNVHQ4EFgQUjyx8Vy4eA2Xvhn6uf7sZDgySmSQwHwYDVR0jBBgwFoAUVxtw
lLPktSn6UZw/d1qPFfiCGrYwCwYDVR0PBAQDAgXgMBQGA1UdEQQNMAuCCWxvY2Fs
aG9zdDANBgkqhkiG9w0BAQsFAAOCAQEAxRMmp7h6pdD8CH6dmmXRlbMaroWJv+J0
ZYJijf7MgIlWZoIpvCEv7r5EG50ZXWUgQuoXYclFm+6EVCKJB2RAD0vqKTCIDG5E
fl0nPgMVpuT+B21YJ/Aw2izvZGpT0uFCh89gA7HmTwYLuGDGlCvb+5H6iYbVtwZN
SFzYFX8f1IVR72Jox30+t8YIKFnKYgI5HJ+uBlIPvlJwQBNB7RniD/zCUBV3t1wN
XeucO2D4/qTNfo9j3DNfAgNL3Uj7NojOH4AKT6dZlejoAXrQ11Z3jCMjYEha/sJy
qKtTDlbQ0XAt0yfgmYdEEUD+xzf0PAQi5n0JpBKeOqCMvfpqPBDUjg==
-----END CERTIFICATE-----
