Certificate:
    Data:
        Version: 3 (0x2)
        Serial Number:
            7b:29:57:16:b7:af:f0:a5:cf:94:2b:dc:41:6a:3a:5a:11:ef:e1:0c
        Signature Algorithm: sha256WithRSAEncryption
        Issuer: C=UA, ST=Kirovograd region, O=Bondarenko Denys Serhiiovych, OU=CA, CN=denbond7.com/emailAddress=admin@denbond7.com
        Validity
            Not Before: Jan 29 09:31:29 2021 GMT
            Not After : Jan 24 09:31:29 2041 GMT
        Subject: C=UA, ST=Kirovograd region, O=Bondarenko Denys Serhiiovych, OU=CA, CN=denbond7.com/emailAddress=admin@denbond7.com
        Subject Public Key Info:
            Public Key Algorithm: rsaEncryption
                RSA Public-Key: (2048 bit)
                Modulus:
                    00:c0:82:f3:8c:74:c6:c5:48:35:cc:19:91:5d:74:
                    8c:5b:cf:f0:7f:9a:7b:e7:3b:61:70:32:6c:a1:ca:
                    61:0b:2f:30:37:2f:d3:fd:8b:13:7d:8f:24:f0:0b:
                    f8:22:5d:37:b4:a7:e1:23:8a:9a:d0:b9:c2:2b:78:
                    3f:df:00:11:93:47:10:8e:d6:2b:d4:45:d0:74:ba:
                    92:b9:0d:8f:ee:c7:c0:9c:04:9e:b4:ba:a8:e2:b0:
                    35:e6:d6:37:2a:65:f5:46:36:0f:9b:84:12:8a:dd:
                    aa:e7:89:87:2c:7a:e7:30:23:6b:91:a7:dc:68:1b:
                    61:32:69:b3:48:d6:ba:15:e6:34:82:1a:5c:17:85:
                    64:e9:a3:44:7e:fb:37:a2:0c:34:19:43:70:a2:9d:
                    c3:9a:80:df:21:c8:de:6c:0d:68:97:6b:5c:28:f9:
                    5a:02:cd:49:ec:55:50:e2:97:ea:b1:d8:5a:f7:2f:
                    28:da:65:45:7e:85:5f:43:cd:d6:d4:34:1f:54:f5:
                    93:64:cb:a5:a5:65:75:e9:09:fb:c6:55:81:70:d0:
                    97:b5:b0:cf:57:d3:64:86:0d:03:60:d8:4d:45:75:
                    10:27:06:5d:be:a9:f2:69:b1:64:4c:9f:4e:2d:dd:
                    ed:e9:8c:7c:97:06:29:2a:96:cc:62:a3:92:bf:44:
                    1f:97
                Exponent: 65537 (0x10001)
        X509v3 extensions:
            X509v3 Subject Key Identifier: 
                46:79:98:E4:E0:65:7F:55:61:D5:8A:28:9B:55:5B:16:AF:B4:8A:81
            X509v3 Authority Key Identifier: 
                keyid:46:79:98:E4:E0:65:7F:55:61:D5:8A:28:9B:55:5B:16:AF:B4:8A:81

            X509v3 Basic Constraints: critical
                CA:TRUE
    Signature Algorithm: sha256WithRSAEncryption
         08:6a:83:7e:65:3b:38:7a:db:2e:d2:08:56:b6:7e:5c:5b:05:
         62:64:87:e2:78:db:65:a7:8b:18:4c:35:f5:d8:26:f7:1a:98:
         70:a6:c0:11:af:52:0e:d3:ca:89:3f:11:ec:7b:70:66:8a:40:
         4a:16:ff:42:92:94:9b:00:62:e4:62:ee:49:08:44:71:93:f0:
         ea:e7:36:50:1d:e3:46:1f:51:fc:0e:9c:50:b4:40:16:7c:48:
         7b:fb:79:ee:93:9b:81:bd:d2:e6:2c:af:96:fe:06:75:de:97:
         25:a7:56:68:79:9c:0d:de:f5:e9:cd:84:56:94:bd:6c:34:36:
         11:34:c5:69:8f:04:1e:08:6a:4d:6c:23:5f:aa:28:b6:7e:71:
         76:96:bd:2f:d8:9e:ef:4a:b1:fc:29:9c:a2:db:52:f4:99:6c:
         6c:30:a3:82:14:b0:71:08:53:92:10:89:b0:0c:86:8e:4b:3c:
         74:af:5a:be:8d:40:3b:70:a1:a1:86:66:16:50:8c:1d:93:e6:
         4b:5b:d2:4f:bc:51:b1:ad:1f:5e:d8:47:ba:62:1b:10:99:6d:
         6b:c4:30:e7:c4:b7:84:ee:62:b8:91:8e:b5:ba:db:0b:13:c3:
         ac:99:12:58:f2:8f:51:56:5f:18:91:a3:97:60:52:65:44:53:
         88:ed:e7:90
-----BEGIN CERTIFICATE-----
MIIEETCCAvmgAwIBAgIUeylXFrev8KXPlCvcQWo6WhHv4QwwDQYJKoZIhvcNAQEL
BQAwgZcxCzAJBgNVBAYTAlVBMRowGAYDVQQIDBFLaXJvdm9ncmFkIHJlZ2lvbjEl
MCMGA1UECgwcQm9uZGFyZW5rbyBEZW55cyBTZXJoaWlvdnljaDELMAkGA1UECwwC
Q0ExFTATBgNVBAMMDGRlbmJvbmQ3LmNvbTEhMB8GCSqGSIb3DQEJARYSYWRtaW5A
ZGVuYm9uZDcuY29tMB4XDTIxMDEyOTA5MzEyOVoXDTQxMDEyNDA5MzEyOVowgZcx
CzAJBgNVBAYTAlVBMRowGAYDVQQIDBFLaXJvdm9ncmFkIHJlZ2lvbjElMCMGA1UE
CgwcQm9uZGFyZW5rbyBEZW55cyBTZXJoaWlvdnljaDELMAkGA1UECwwCQ0ExFTAT
BgNVBAMMDGRlbmJvbmQ3LmNvbTEhMB8GCSqGSIb3DQEJARYSYWRtaW5AZGVuYm9u
ZDcuY29tMIIBIjANBgkqhkiG9w0BAQEFAAOCAQ8AMIIBCgKCAQEAwILzjHTGxUg1
zBmRXXSMW8/wf5p75zthcDJsocphCy8wNy/T/YsTfY8k8Av4Il03tKfhI4qa0LnC
K3g/3wARk0cQjtYr1EXQdLqSuQ2P7sfAnASetLqo4rA15tY3KmX1RjYPm4QSit2q
54mHLHrnMCNrkafcaBthMmmzSNa6FeY0ghpcF4Vk6aNEfvs3ogw0GUNwop3DmoDf
IcjebA1ol2tcKPlaAs1J7FVQ4pfqsdha9y8o2mVFfoVfQ83W1DQfVPWTZMulpWV1
6Qn7xlWBcNCXtbDPV9Nkhg0DYNhNRXUQJwZdvqnyabFkTJ9OLd3t6Yx8lwYpKpbM
YqOSv0QflwIDAQABo1MwUTAdBgNVHQ4EFgQURnmY5OBlf1Vh1Yoom1VbFq+0ioEw
HwYDVR0jBBgwFoAURnmY5OBlf1Vh1Yoom1VbFq+0ioEwDwYDVR0TAQH/BAUwAwEB
/zANBgkqhkiG9w0BAQsFAAOCAQEACGqDfmU7OHrbLtIIVrZ+XFsFYmSH4njbZaeL
GEw19dgm9xqYcKbAEa9SDtPKiT8R7HtwZopAShb/QpKUmwBi5GLuSQhEcZPw6uc2
UB3jRh9R/A6cULRAFnxIe/t57pObgb3S5iyvlv4Gdd6XJadWaHmcDd716c2EVpS9
bDQ2ETTFaY8EHghqTWwjX6ootn5xdpa9L9ie70qx/CmcottS9JlsbDCjghSwcQhT
khCJsAyGjks8dK9avo1AO3ChoYZmFlCMHZPmS1vST7xRsa0fXthHumIbEJlta8Qw
58S3hO5iuJGOtbrbCxPDrJkSWPKPUVZfGJGjl2BSZURTiO3nkA==
-----END CERTIFICATE-----
