Certificate:
    Data:
        Version: 3 (0x2)
        Serial Number:
            09:b7:10:b7:71:2c:10:36:01:54:f9:6d:1b:21:d4:7e:36:f1:e9:52
        Signature Algorithm: sha256WithRSAEncryption
        Issuer: C=UA, ST=Debug, O=FlowCrypt, CN=flowcrypt.test/emailAddress=admin@flowcrypt.test
        Validity
            Not Before: Apr 29 08:25:28 2021 GMT
            Not After : Apr 27 08:25:28 2031 GMT
        Subject: C=UA, ST=Debug, O=FlowCrypt, CN=localhost/emailAddress=admin@flowcrypt.test
        Subject Public Key Info:
            Public Key Algorithm: rsaEncryption
                RSA Public-Key: (2048 bit)
                Modulus:
                    00:b7:56:70:c2:b1:70:bb:a3:b9:bb:51:8c:63:1d:
                    96:b8:3c:dc:9b:c8:b0:ce:81:9a:0a:e0:11:71:9d:
                    4d:49:84:85:ad:4b:db:a7:e0:31:5b:5c:63:96:83:
                    2f:9e:c1:9d:41:25:00:11:9e:80:fa:c2:0d:57:76:
                    3d:82:1d:f0:61:a7:31:7e:1d:02:b5:8c:59:f0:14:
                    30:ec:13:8f:44:23:1f:2e:19:2f:fe:49:ff:5d:0c:
                    ee:3e:f8:be:a8:54:ca:43:1f:4a:90:bd:ea:33:14:
                    8b:ed:d2:ce:33:2a:74:2f:94:00:48:3e:21:47:a2:
                    bf:4e:6d:74:0f:cc:13:fe:27:4a:de:2b:e3:ae:3e:
                    eb:92:59:5a:53:4b:a6:29:8a:f1:60:17:06:e0:bc:
                    a0:87:20:a8:5a:dc:7f:3d:21:30:ed:69:d1:cc:76:
                    be:66:19:71:97:d6:52:e6:d9:a8:38:9c:ef:41:a7:
                    82:0a:ed:5f:19:ff:86:bc:6e:9a:f5:ae:0a:d1:c7:
                    70:87:36:e2:8f:88:28:91:7b:75:8e:89:66:1f:8e:
                    4e:f0:0a:bb:d7:b0:09:a9:e6:d0:17:8d:2a:ef:da:
                    39:4d:29:95:28:68:5e:b1:43:25:1e:51:be:90:f1:
                    9c:81:cb:b9:5a:7b:d6:1e:b3:9f:f0:57:3a:48:20:
                    55:a3
                Exponent: 65537 (0x10001)
        X509v3 extensions:
            X509v3 Basic Constraints: 
                CA:FALSE
            Netscape Comment: 
                OpenSSL Generated Certificate
            X509v3 Subject Key Identifier: 
                90:1C:08:37:E7:F4:AA:60:B1:47:37:58:60:AE:38:AC:20:F8:B8:AB
            X509v3 Authority Key Identifier: 
                keyid:CC:5E:C9:EC:AE:05:FF:3C:08:64:3C:8A:75:6A:7F:DF:08:A8:FE:A9

    Signature Algorithm: sha256WithRSAEncryption
         67:92:d2:d6:7f:31:5b:ea:97:4b:00:d9:8e:31:a7:11:42:5c:
         35:c5:35:5a:14:72:82:3a:db:a8:a7:cd:ca:78:2d:52:d8:7c:
         b3:d7:e2:d5:1c:83:b4:94:08:79:96:05:6d:69:12:25:b3:5e:
         c7:a8:1e:10:b0:da:0a:c0:80:f0:5a:11:61:d6:50:87:7d:f3:
         9d:39:79:b5:ea:e4:35:52:fe:e5:42:a8:91:95:c6:19:10:0c:
         cb:6d:c4:73:17:61:5a:06:b4:6e:be:66:2e:76:83:f1:2e:55:
         f5:25:7d:c3:eb:4b:fd:7a:82:11:56:49:43:a1:6c:52:48:6b:
         8e:32:fd:46:f2:19:cc:fb:8e:4f:6b:1b:5a:d9:fd:c3:f9:14:
         73:86:84:c1:34:e7:01:47:10:7e:45:12:bc:6e:ae:9e:cc:4e:
         2b:db:39:29:23:1e:fb:f9:17:58:c7:00:35:b2:1c:a7:dd:16:
         28:74:44:fc:db:99:e2:85:26:76:b8:c3:b2:9c:09:e1:f2:b2:
         80:e4:c1:e7:2a:b0:ef:58:f4:b2:b7:24:bd:ef:b7:9d:7c:df:
         c3:c7:e7:5a:4c:61:22:76:0a:36:4f:12:bf:d0:78:7c:96:c5:
         77:43:a5:ce:09:e5:c4:b8:b2:2b:2f:af:23:03:86:ae:bf:a6:
         2e:76:be:9b
-----BEGIN CERTIFICATE-----
MIID4jCCAsqgAwIBAgIUCbcQt3EsEDYBVPltGyHUfjbx6VIwDQYJKoZIhvcNAQEL
BQAwbzELMAkGA1UEBhMCVUExDjAMBgNVBAgMBURlYnVnMRIwEAYDVQQKDAlGbG93
Q3J5cHQxFzAVBgNVBAMMDmZsb3djcnlwdC50ZXN0MSMwIQYJKoZIhvcNAQkBFhRh
ZG1pbkBmbG93Y3J5cHQudGVzdDAeFw0yMTA0MjkwODI1MjhaFw0zMTA0MjcwODI1
MjhaMGoxCzAJBgNVBAYTAlVBMQ4wDAYDVQQIDAVEZWJ1ZzESMBAGA1UECgwJRmxv
d0NyeXB0MRIwEAYDVQQDDAlsb2NhbGhvc3QxIzAhBgkqhkiG9w0BCQEWFGFkbWlu
QGZsb3djcnlwdC50ZXN0MIIBIjANBgkqhkiG9w0BAQEFAAOCAQ8AMIIBCgKCAQEA
t1ZwwrFwu6O5u1GMYx2WuDzcm8iwzoGaCuARcZ1NSYSFrUvbp+AxW1xjloMvnsGd
QSUAEZ6A+sINV3Y9gh3wYacxfh0CtYxZ8BQw7BOPRCMfLhkv/kn/XQzuPvi+qFTK
Qx9KkL3qMxSL7dLOMyp0L5QASD4hR6K/Tm10D8wT/idK3ivjrj7rkllaU0umKYrx
YBcG4LyghyCoWtx/PSEw7WnRzHa+Zhlxl9ZS5tmoOJzvQaeCCu1fGf+GvG6a9a4K
0cdwhzbij4gokXt1jolmH45O8Aq717AJqebQF40q79o5TSmVKGhesUMlHlG+kPGc
gcu5WnvWHrOf8Fc6SCBVowIDAQABo3sweTAJBgNVHRMEAjAAMCwGCWCGSAGG+EIB
DQQfFh1PcGVuU1NMIEdlbmVyYXRlZCBDZXJ0aWZpY2F0ZTAdBgNVHQ4EFgQUkBwI
N+f0qmCxRzdYYK44rCD4uKswHwYDVR0jBBgwFoAUzF7J7K4F/zwIZDyKdWp/3wio
/qkwDQYJKoZIhvcNAQELBQADggEBAGeS0tZ/MVvql0sA2Y4xpxFCXDXFNVoUcoI6
26inzcp4LVLYfLPX4tUcg7SUCHmWBW1pEiWzXseoHhCw2grAgPBaEWHWUId98505
ebXq5DVS/uVCqJGVxhkQDMttxHMXYVoGtG6+Zi52g/EuVfUlfcPrS/16ghFWSUOh
bFJIa44y/UbyGcz7jk9rG1rZ/cP5FHOGhME05wFHEH5FErxurp7MTivbOSkjHvv5
F1jHADWyHKfdFih0RPzbmeKFJna4w7KcCeHysoDkwecqsO9Y9LK3JL3vt51838PH
51pMYSJ2CjZPEr/QeHyWxXdDpc4J5cS4sisvryMDhq6/pi52vps=
-----END CERTIFICATE-----
