Certificate:
    Data:
        Version: 3 (0x2)
        Serial Number:
            7b:29:57:16:b7:af:f0:a5:cf:94:2b:dc:41:6a:3a:5a:11:ef:e1:0d
        Signature Algorithm: sha256WithRSAEncryption
        Issuer: C=UA, ST=Kirovograd region, O=Bondarenko Denys Serhiiovych, OU=CA, CN=denbond7.com/emailAddress=admin@denbond7.com
        Validity
            Not Before: Jan 29 11:26:44 2021 GMT
            Not After : Jan 27 11:26:44 2031 GMT
        Subject: C=UA, ST=Kirovograd region, O=Bondarenko Denys Serhiiovych, OU=Android Team, CN=mail.denbond7.com/emailAddress=admin@denbond7.com
        Subject Public Key Info:
            Public Key Algorithm: rsaEncryption
                RSA Public-Key: (2048 bit)
                Modulus:
                    00:c9:f4:a6:12:47:9c:de:7b:92:15:68:13:0a:cb:
                    9d:fa:83:10:f0:5e:cf:67:01:26:21:37:d1:eb:9f:
                    f7:3e:92:0b:6a:76:dd:86:54:bd:c1:a9:44:bd:2e:
                    19:7b:e9:bf:af:8c:c9:01:b7:a9:4d:da:a7:fa:43:
                    5e:d0:1a:0e:d5:c5:17:c3:be:90:30:69:51:6c:72:
                    d7:73:9f:38:c3:3a:c3:42:27:e3:0d:9b:42:27:78:
                    20:b1:bf:de:0b:92:2d:7b:27:6a:53:74:6d:71:e2:
                    8b:be:4f:80:61:e8:54:3e:49:57:a5:6a:15:6a:29:
                    10:a1:7e:d5:80:d9:81:0e:f7:46:f6:0e:e5:f9:6d:
                    c3:4a:bd:7f:61:17:9a:26:fc:b8:c3:3a:2f:fc:8c:
                    28:28:4b:de:09:45:ef:ae:18:e9:6f:9f:0c:2f:09:
                    07:2e:c7:4e:50:c7:15:2a:dc:64:6c:2d:57:dd:f6:
                    58:b1:f4:bc:61:f9:7e:ad:9e:e0:4c:87:57:3a:22:
                    4d:ca:ff:29:1a:0c:53:72:51:d6:31:9c:5c:65:db:
                    f9:d9:ab:71:d9:03:a7:98:2e:c8:48:f8:b7:77:75:
                    f9:41:cb:04:24:f6:1b:ef:7c:51:0b:2d:f0:ea:22:
                    f7:6e:a5:09:a2:ce:31:e2:50:f2:95:be:53:67:d7:
                    36:bd
                Exponent: 65537 (0x10001)
        X509v3 extensions:
            X509v3 Basic Constraints: 
                CA:FALSE
            Netscape Comment: 
                OpenSSL Generated Certificate
            X509v3 Subject Key Identifier: 
                21:06:D6:C7:9B:DB:EE:EC:B0:AF:8F:E9:7C:75:6C:2E:42:3A:D7:A6
            X509v3 Authority Key Identifier: 
                keyid:46:79:98:E4:E0:65:7F:55:61:D5:8A:28:9B:55:5B:16:AF:B4:8A:81

    Signature Algorithm: sha256WithRSAEncryption
         05:2f:0b:c2:70:f1:3a:e2:0c:cc:5e:94:01:70:c4:c3:38:4a:
         fe:5c:f5:26:32:43:d3:0d:e7:a9:b3:5c:a3:57:d2:48:52:76:
         30:08:a1:66:31:96:36:fe:ef:ac:9b:c8:78:71:7e:d2:07:02:
         0b:90:09:b9:f8:4a:f6:f4:90:05:b5:c9:09:a4:8a:5d:5e:6c:
         a9:e2:f0:7d:03:74:13:e1:54:7f:8b:fc:ab:81:96:2c:94:1e:
         4a:b4:4b:d8:5e:00:44:e6:00:26:f0:fd:af:6f:ad:d5:5f:09:
         e7:fc:5d:f3:50:cc:dd:69:c2:28:d4:35:e9:4f:8b:b4:15:8e:
         3f:2b:d7:0f:06:42:bb:0c:3f:5c:b5:8b:2e:b5:48:6b:77:97:
         2a:4b:30:7a:18:e0:09:03:cd:88:2b:17:b9:d6:cb:e2:7b:25:
         4b:94:22:08:a7:ce:34:ec:14:19:ab:9e:0f:e8:7d:36:05:07:
         65:c2:98:29:35:83:3a:c7:12:b4:25:9c:b0:d7:f4:8e:6d:9b:
         5c:e0:20:54:dc:79:3b:1e:8f:c7:9f:7f:c9:db:3b:31:3e:6b:
         96:dc:8d:ff:60:9c:f1:58:86:94:d3:ff:99:11:28:a7:50:d3:
         25:01:c6:f7:2f:46:2f:e4:61:e9:7b:f6:fa:aa:2e:fa:5b:f5:
         5d:92:9a:b5
-----BEGIN CERTIFICATE-----
MIIESDCCAzCgAwIBAgIUeylXFrev8KXPlCvcQWo6WhHv4Q0wDQYJKoZIhvcNAQEL
BQAwgZcxCzAJBgNVBAYTAlVBMRowGAYDVQQIDBFLaXJvdm9ncmFkIHJlZ2lvbjEl
MCMGA1UECgwcQm9uZGFyZW5rbyBEZW55cyBTZXJoaWlvdnljaDELMAkGA1UECwwC
Q0ExFTATBgNVBAMMDGRlbmJvbmQ3LmNvbTEhMB8GCSqGSIb3DQEJARYSYWRtaW5A
ZGVuYm9uZDcuY29tMB4XDTIxMDEyOTExMjY0NFoXDTMxMDEyNzExMjY0NFowgaYx
CzAJBgNVBAYTAlVBMRowGAYDVQQIDBFLaXJvdm9ncmFkIHJlZ2lvbjElMCMGA1UE
CgwcQm9uZGFyZW5rbyBEZW55cyBTZXJoaWlvdnljaDEVMBMGA1UECwwMQW5kcm9p
ZCBUZWFtMRowGAYDVQQDDBFtYWlsLmRlbmJvbmQ3LmNvbTEhMB8GCSqGSIb3DQEJ
ARYSYWRtaW5AZGVuYm9uZDcuY29tMIIBIjANBgkqhkiG9w0BAQEFAAOCAQ8AMIIB
CgKCAQEAyfSmEkec3nuSFWgTCsud+oMQ8F7PZwEmITfR65/3PpILanbdhlS9walE
vS4Ze+m/r4zJAbepTdqn+kNe0BoO1cUXw76QMGlRbHLXc584wzrDQifjDZtCJ3gg
sb/eC5IteydqU3RtceKLvk+AYehUPklXpWoVaikQoX7VgNmBDvdG9g7l+W3DSr1/
YReaJvy4wzov/IwoKEveCUXvrhjpb58MLwkHLsdOUMcVKtxkbC1X3fZYsfS8Yfl+
rZ7gTIdXOiJNyv8pGgxTclHWMZxcZdv52atx2QOnmC7ISPi3d3X5QcsEJPYb73xR
Cy3w6iL3bqUJos4x4lDylb5TZ9c2vQIDAQABo3sweTAJBgNVHRMEAjAAMCwGCWCG
SAGG+EIBDQQfFh1PcGVuU1NMIEdlbmVyYXRlZCBDZXJ0aWZpY2F0ZTAdBgNVHQ4E
FgQUIQbWx5vb7uywr4/pfHVsLkI616YwHwYDVR0jBBgwFoAURnmY5OBlf1Vh1Yoo
m1VbFq+0ioEwDQYJKoZIhvcNAQELBQADggEBAAUvC8Jw8TriDMxelAFwxMM4Sv5c
9SYyQ9MN56mzXKNX0khSdjAIoWYxljb+76ybyHhxftIHAguQCbn4Svb0kAW1yQmk
il1ebKni8H0DdBPhVH+L/KuBliyUHkq0S9heAETmACbw/a9vrdVfCef8XfNQzN1p
wijUNelPi7QVjj8r1w8GQrsMP1y1iy61SGt3lypLMHoY4AkDzYgrF7nWy+J7JUuU
IginzjTsFBmrng/ofTYFB2XCmCk1gzrHErQlnLDX9I5tm1zgIFTceTsej8eff8nb
OzE+a5bcjf9gnPFYhpTT/5kRKKdQ0yUBxvcvRi/kYel79vqqLvpb9V2SmrU=
-----END CERTIFICATE-----
