Certificate:
    Data:
        Version: 3 (0x2)
        Serial Number:
            79:4a:f2:1e:00:d0:32:65:89:9a:74:06:16:6c:d1:14:02:a5:76:f5
        Signature Algorithm: sha256WithRSAEncryption
        Issuer: C=CZ, ST=Debug, O=FlowCrypt, OU=CA, CN=flowcrypt.test/emailAddress=admin@flowcrypt.test
        Validity
            Not Before: May  3 06:35:29 2021 GMT
            Not After : May  1 06:35:29 2031 GMT
        Subject: C=CZ, ST=Debug, O=FlowCrypt, CN=mail.flowcrypt.test/emailAddress=admin@flowcrypt.test
        Subject Public Key Info:
            Public Key Algorithm: rsaEncryption
                RSA Public-Key: (2048 bit)
                Modulus:
                    00:d1:f1:5c:05:ae:1f:c8:c0:8c:07:74:37:ab:4d:
                    dc:71:aa:d3:5f:8a:80:da:2b:88:a1:ef:33:2f:8a:
                    c0:37:58:36:f5:a7:91:d4:a6:0d:71:09:bd:d9:b1:
                    e9:65:7f:19:11:24:42:d8:ce:41:5b:5f:a6:44:66:
                    b2:f2:51:7c:e5:e0:f9:6d:92:e1:0f:7a:18:d4:17:
                    e0:20:59:c5:51:22:e7:27:e3:df:c9:71:96:79:16:
                    db:de:b6:35:a5:53:29:d6:ab:4d:86:a3:48:3f:2c:
                    a8:6c:75:8d:ec:cd:dd:8b:5c:d0:b0:9f:b0:14:1e:
                    00:fb:0d:24:13:1e:6e:3e:a6:68:4e:4d:69:e3:2e:
                    a3:c2:6d:c0:8e:94:da:a5:c1:fc:31:c2:14:1b:19:
                    73:bd:6a:07:57:14:ee:e2:15:75:41:30:6e:b4:ff:
                    11:85:23:e5:e0:d0:30:22:1a:7a:74:8c:e3:3f:98:
                    d5:30:22:53:38:9d:5b:d8:bc:c8:ed:16:05:0a:f8:
                    c6:cc:22:8a:87:68:3e:d6:01:12:e4:60:63:6f:33:
                    4f:c7:12:32:20:e5:86:78:14:81:c3:a5:04:bb:02:
                    5e:cf:15:86:d0:41:e0:e1:0b:00:12:53:02:cc:90:
                    0c:d4:a4:1b:4f:cf:b8:15:5a:0b:97:9c:a9:a7:b9:
                    7c:7b
                Exponent: 65537 (0x10001)
        X509v3 extensions:
            X509v3 Basic Constraints: 
                CA:FALSE
            Netscape Comment: 
                OpenSSL Generated Certificate
            X509v3 Subject Key Identifier: 
                7A:69:A9:98:71:AC:4D:60:6F:02:25:FF:3B:B0:E7:7B:45:B0:85:69
            X509v3 Authority Key Identifier: 
                keyid:57:1B:70:94:B3:E4:B5:29:FA:51:9C:3F:77:5A:8F:15:F8:82:1A:B6

    Signature Algorithm: sha256WithRSAEncryption
         c0:39:7f:3c:8e:75:7f:40:76:8a:77:82:c4:5f:6d:50:cf:b3:
         10:7c:76:35:1f:d7:93:af:1e:d5:f1:4c:4d:59:eb:c3:88:fe:
         7a:91:c5:10:3c:f3:2e:24:56:57:27:9f:08:fa:ab:c3:2c:df:
         6b:da:3a:f3:06:42:40:03:a1:40:fa:20:ee:a4:b8:ba:14:69:
         37:94:45:a5:53:1d:82:40:e4:ea:ec:e2:89:06:6c:c2:35:cd:
         0a:5c:56:63:b0:84:af:6d:cc:82:2a:91:6d:aa:c9:11:76:ef:
         df:d4:09:30:52:b1:83:49:25:35:9f:e6:e4:16:d1:ab:35:c2:
         1f:94:05:18:c1:60:f8:e6:38:16:9a:72:09:8d:77:72:5b:e3:
         2a:f9:ab:75:0b:94:88:5f:83:f2:f8:7c:b5:23:00:78:89:e3:
         5e:00:43:84:a9:54:9d:57:27:60:22:5f:e4:16:d6:96:9e:a2:
         c3:69:59:7a:40:3f:84:48:b0:f1:27:d0:a1:94:4d:15:b3:d5:
         87:1e:3b:55:1f:08:22:39:98:11:01:37:ec:73:35:a7:c0:43:
         b8:69:d9:2f:10:00:a1:db:07:53:bb:f8:97:ad:48:14:63:a2:
         26:61:da:04:80:e7:d4:fa:6d:d0:c4:c8:eb:e6:a3:e8:ab:f1:
         ca:0a:64:ad
-----BEGIN CERTIFICATE-----
MIID+TCCAuGgAwIBAgIUeUryHgDQMmWJmnQGFmzRFAKldvUwDQYJKoZIhvcNAQEL
BQAwfDELMAkGA1UEBhMCQ1oxDjAMBgNVBAgMBURlYnVnMRIwEAYDVQQKDAlGbG93
Q3J5cHQxCzAJBgNVBAsMAkNBMRcwFQYDVQQDDA5mbG93Y3J5cHQudGVzdDEjMCEG
CSqGSIb3DQEJARYUYWRtaW5AZmxvd2NyeXB0LnRlc3QwHhcNMjEwNTAzMDYzNTI5
WhcNMzEwNTAxMDYzNTI5WjB0MQswCQYDVQQGEwJDWjEOMAwGA1UECAwFRGVidWcx
EjAQBgNVBAoMCUZsb3dDcnlwdDEcMBoGA1UEAwwTbWFpbC5mbG93Y3J5cHQudGVz
dDEjMCEGCSqGSIb3DQEJARYUYWRtaW5AZmxvd2NyeXB0LnRlc3QwggEiMA0GCSqG
SIb3DQEBAQUAA4IBDwAwggEKAoIBAQDR8VwFrh/IwIwHdDerTdxxqtNfioDaK4ih
7zMvisA3WDb1p5HUpg1xCb3ZsellfxkRJELYzkFbX6ZEZrLyUXzl4PltkuEPehjU
F+AgWcVRIucn49/JcZZ5FtvetjWlUynWq02Go0g/LKhsdY3szd2LXNCwn7AUHgD7
DSQTHm4+pmhOTWnjLqPCbcCOlNqlwfwxwhQbGXO9agdXFO7iFXVBMG60/xGFI+Xg
0DAiGnp0jOM/mNUwIlM4nVvYvMjtFgUK+MbMIoqHaD7WARLkYGNvM0/HEjIg5YZ4
FIHDpQS7Al7PFYbQQeDhCwASUwLMkAzUpBtPz7gVWguXnKmnuXx7AgMBAAGjezB5
MAkGA1UdEwQCMAAwLAYJYIZIAYb4QgENBB8WHU9wZW5TU0wgR2VuZXJhdGVkIENl
cnRpZmljYXRlMB0GA1UdDgQWBBR6aamYcaxNYG8CJf87sOd7RbCFaTAfBgNVHSME
GDAWgBRXG3CUs+S1KfpRnD93Wo8V+IIatjANBgkqhkiG9w0BAQsFAAOCAQEAwDl/
PI51f0B2ineCxF9tUM+zEHx2NR/Xk68e1fFMTVnrw4j+epHFEDzzLiRWVyefCPqr
wyzfa9o68wZCQAOhQPog7qS4uhRpN5RFpVMdgkDk6uziiQZswjXNClxWY7CEr23M
giqRbarJEXbv39QJMFKxg0klNZ/m5BbRqzXCH5QFGMFg+OY4FppyCY13clvjKvmr
dQuUiF+D8vh8tSMAeInjXgBDhKlUnVcnYCJf5BbWlp6iw2lZekA/hEiw8SfQoZRN
FbPVhx47VR8IIjmYEQE37HM1p8BDuGnZLxAAodsHU7v4l61IFGOiJmHaBIDn1Ppt
0MTI6+aj6KvxygpkrQ==
-----END CERTIFICATE-----
