-----BEGIN PRIVATE KEY-----
MIIEuwIBADANBgkqhkiG9w0BAQEFAASCBKUwggShAgEAAoIBAQC3zKIfPeYHA42w
dcXgXSL2ShpepT/90jrNkEvO5odr0AwWwhyrmkbxhd02CrkgUbio4FPlOr+Ra5Kj
CkyRzRCkrYs/YatC5uZohIph8m1iUsH77PFacQpU6JffXZsB2E2gX4VbImY678+4
YxtzVF6VpG6G23OTr2wcZ9UiXecMwxq/yUitshafEXML8F9q2sL1TB1tnVRwpTTp
R74NvYj8a6mydsHIp7gdJUOcYUF+QoDP/CSTXxcH44iwp1HxLGF9fFoQZWOCPHjD
o+jX4e3Y3oNeskK8KAwGYUnVd2F4jQOiQZ46QqbUDrxA5gCIBGJ5oXU04xZzbze3
wvdpGzBVAgMBAAECggEADT4vSDT7h/HXmalCsqHDTR+VutAJRk6Jcho9fBDcHQaG
eHVP/4VEK07L24L2R7/boD9ZjCCpgN7RV/H8Bl1SH6tpZw2we0eLvmgeWGRRQU5Z
L7+ovC184xVHLA7ghkeBgFahkyltWD3DJ7PsXGjtz7ZjSFAziaaQEZPhpXJCnYap
+nncsIwM9ekFsWDQ8YINZu9hDHquqRcoXj04k/Vr7OqUX0Prhy46/Goo21IBvcv6
jPyf2aZ74GXqgsEIsakRhr/vX04/y9+vt7DBdsH5x1qQMD2DAEl7O/WUwVQTRBW1
7ty1UQ456SKkJVbUJ6RzaJnhDfVw76ekplaLAm0xAQKBgQDZ5+QQXPW1TEGhAMgC
n8RHioHZhzjp7oTNu+8IOsMu3zQ3z6WvQsFGkVjxi1VAMKW10m/eCc1ZOdS07u5z
S7qd9ek6aIRo9g3WX13QUFCv00RK0RiwmM0qjRSwdFSbwBViYYI+ttUIEB9VD7bi
AouLDwgRMk3OjA9/oyQjlgkINQKBgQDX7llIqnmBoyiJX+vXhFafXKbrGsch+1wR
cVqCXXD6rbl9R4fyzV4jxI14sgQ/xMpsK+RGMnuly1vDIX1DjkDoFHPjvGRxYPJ6
hhPwb/XVv/kDKaUa/GcovePtQP71a6WaSE2DaoOv7oSIDAxzEfZ0CethoinHksSm
TJ0E/5/LoQKBgQDAJcln3HEWQ34DuSqllbiA1VQXOzQmpBsbR8NJ4HdIl632IPab
CyRfU7+4jwLHrZ4SLNRUWRRov6QfQCmoJXkT3UqiJJPN8lrVVBbnoErmIEeyKZu5
7aPNB8bcqlgJV2ID9LPjFVnY2E6otUixF0lxf/m/IDqYDc2E4Zj2gFDKmQKBgF69
6pjSi5uQzhFwb9dQ7nzftzFCv4quchgJJ1A51X93yAIq54BmEV8aN4R0fx7HppVN
sMwIDG6TSoDUadTBTsNFbg/HMj747YtK1ubRCQkvQP/dPt8XTd/3aVFJClT+VVvb
S39UtdD0k1vqBXBbuknxrEBbWX+CaxwYU3DFBAThAn8vy+9xsj0hSiA3LPVhTGZ5
ih92W91NNlsRGRf2bs9PwhhIeQrVu0osMN0HpiYcfO2KxiqUXJ0/Vhz1bdYdhvD7
OB2bNkMcg/oH/7I5KyZD74tThnXhKN8B2+JTF16tSul+EOesDeCB7y2AR32YwqKf
9YnTfSY/gWb0kl+Nbv90
-----END PRIVATE KEY-----
Certificate:
    Data:
        Version: 3 (0x2)
        Serial Number:
            50:a9:08:b1:13:d7:67:48:22:05:86:22:10:54:74:56:88:60:61:75
        Signature Algorithm: sha256WithRSAEncryption
        Issuer: C=UA, ST=Kirovograd region, O=FOP Bondarenko Denys Serhiiovych, OU=CA, CN=denbond7.com/emailAddress=admin@denbond7.com
        Validity
            Not Before: Jan 29 06:59:39 2021 GMT
            Not After : Jan 29 06:59:39 2022 GMT
        Subject: C=UA, ST=Kirovograd region, O=FOP Bondarenko Denys Serhiiovych, OU=Android Team, CN=mail.denbond7.com/emailAddress=admin@denbond7.com
        Subject Public Key Info:
            Public Key Algorithm: rsaEncryption
                RSA Public-Key: (2048 bit)
                Modulus:
                    00:b7:cc:a2:1f:3d:e6:07:03:8d:b0:75:c5:e0:5d:
                    22:f6:4a:1a:5e:a5:3f:fd:d2:3a:cd:90:4b:ce:e6:
                    87:6b:d0:0c:16:c2:1c:ab:9a:46:f1:85:dd:36:0a:
                    b9:20:51:b8:a8:e0:53:e5:3a:bf:91:6b:92:a3:0a:
                    4c:91:cd:10:a4:ad:8b:3f:61:ab:42:e6:e6:68:84:
                    8a:61:f2:6d:62:52:c1:fb:ec:f1:5a:71:0a:54:e8:
                    97:df:5d:9b:01:d8:4d:a0:5f:85:5b:22:66:3a:ef:
                    cf:b8:63:1b:73:54:5e:95:a4:6e:86:db:73:93:af:
                    6c:1c:67:d5:22:5d:e7:0c:c3:1a:bf:c9:48:ad:b2:
                    16:9f:11:73:0b:f0:5f:6a:da:c2:f5:4c:1d:6d:9d:
                    54:70:a5:34:e9:47:be:0d:bd:88:fc:6b:a9:b2:76:
                    c1:c8:a7:b8:1d:25:43:9c:61:41:7e:42:80:cf:fc:
                    24:93:5f:17:07:e3:88:b0:a7:51:f1:2c:61:7d:7c:
                    5a:10:65:63:82:3c:78:c3:a3:e8:d7:e1:ed:d8:de:
                    83:5e:b2:42:bc:28:0c:06:61:49:d5:77:61:78:8d:
                    03:a2:41:9e:3a:42:a6:d4:0e:bc:40:e6:00:88:04:
                    62:79:a1:75:34:e3:16:73:6f:37:b7:c2:f7:69:1b:
                    30:55
                Exponent: 65537 (0x10001)
        X509v3 extensions:
            X509v3 Basic Constraints: 
                CA:FALSE
            Netscape Comment: 
                OpenSSL Generated Certificate
            X509v3 Subject Key Identifier: 
                7B:37:13:2D:27:A4:3B:C1:52:30:F4:D3:FD:28:F2:42:A6:0B:42:EB
            X509v3 Authority Key Identifier: 
                keyid:66:99:F9:CC:F0:2E:19:62:66:7D:34:3D:CC:10:76:13:4D:17:2C:18

    Signature Algorithm: sha256WithRSAEncryption
         5d:a2:b4:2b:7f:32:d7:4b:d5:9d:c8:ec:93:81:bc:b3:9c:86:
         5e:73:6b:00:63:39:02:0f:ac:e8:dc:71:18:fc:66:c2:b7:f6:
         c2:53:78:cd:57:9c:ac:70:96:96:a9:e2:db:8c:83:5f:67:44:
         d2:97:ee:68:19:0a:dc:10:78:0f:0e:02:b5:a3:6b:b6:6b:b6:
         45:9d:cf:0a:6a:f6:78:15:2a:5c:ad:44:27:eb:e0:fb:c9:f1:
         7e:20:88:e2:df:b3:e1:9c:ac:94:ee:f1:16:0f:fc:5b:0d:2c:
         f8:a9:46:86:e7:74:a0:91:db:fa:d2:fa:86:fa:3c:09:5f:f4:
         d6:99:03:f4:c5:97:1d:da:c8:97:d4:01:c8:b8:35:41:0a:5a:
         b6:e9:c9:4b:6a:62:2b:e6:97:60:2d:b0:fb:f1:71:9c:a7:58:
         ad:2c:31:0b:ff:83:b0:cc:42:f7:00:38:da:da:02:2f:89:fb:
         0f:81:1b:9a:98:0e:67:73:5f:01:dd:21:31:17:46:c2:11:f4:
         9a:21:57:e3:d4:fb:2c:eb:2b:3e:43:c9:87:02:ce:97:f0:d1:
         c1:05:ed:b9:e8:65:8a:71:01:46:7c:e5:3d:a3:c1:ae:f4:0a:
         79:8b:28:17:05:f9:94:c3:f1:ad:e5:11:94:af:86:24:fd:39:
         39:ba:5c:91
-----BEGIN CERTIFICATE-----
MIIEUDCCAzigAwIBAgIUUKkIsRPXZ0giBYYiEFR0VohgYXUwDQYJKoZIhvcNAQEL
BQAwgZsxCzAJBgNVBAYTAlVBMRowGAYDVQQIDBFLaXJvdm9ncmFkIHJlZ2lvbjEp
MCcGA1UECgwgRk9QIEJvbmRhcmVua28gRGVueXMgU2VyaGlpb3Z5Y2gxCzAJBgNV
BAsMAkNBMRUwEwYDVQQDDAxkZW5ib25kNy5jb20xITAfBgkqhkiG9w0BCQEWEmFk
bWluQGRlbmJvbmQ3LmNvbTAeFw0yMTAxMjkwNjU5MzlaFw0yMjAxMjkwNjU5Mzla
MIGqMQswCQYDVQQGEwJVQTEaMBgGA1UECAwRS2lyb3ZvZ3JhZCByZWdpb24xKTAn
BgNVBAoMIEZPUCBCb25kYXJlbmtvIERlbnlzIFNlcmhpaW92eWNoMRUwEwYDVQQL
DAxBbmRyb2lkIFRlYW0xGjAYBgNVBAMMEW1haWwuZGVuYm9uZDcuY29tMSEwHwYJ
KoZIhvcNAQkBFhJhZG1pbkBkZW5ib25kNy5jb20wggEiMA0GCSqGSIb3DQEBAQUA
A4IBDwAwggEKAoIBAQC3zKIfPeYHA42wdcXgXSL2ShpepT/90jrNkEvO5odr0AwW
whyrmkbxhd02CrkgUbio4FPlOr+Ra5KjCkyRzRCkrYs/YatC5uZohIph8m1iUsH7
7PFacQpU6JffXZsB2E2gX4VbImY678+4YxtzVF6VpG6G23OTr2wcZ9UiXecMwxq/
yUitshafEXML8F9q2sL1TB1tnVRwpTTpR74NvYj8a6mydsHIp7gdJUOcYUF+QoDP
/CSTXxcH44iwp1HxLGF9fFoQZWOCPHjDo+jX4e3Y3oNeskK8KAwGYUnVd2F4jQOi
QZ46QqbUDrxA5gCIBGJ5oXU04xZzbze3wvdpGzBVAgMBAAGjezB5MAkGA1UdEwQC
MAAwLAYJYIZIAYb4QgENBB8WHU9wZW5TU0wgR2VuZXJhdGVkIENlcnRpZmljYXRl
MB0GA1UdDgQWBBR7NxMtJ6Q7wVIw9NP9KPJCpgtC6zAfBgNVHSMEGDAWgBRmmfnM
8C4ZYmZ9ND3MEHYTTRcsGDANBgkqhkiG9w0BAQsFAAOCAQEAXaK0K38y10vVncjs
k4G8s5yGXnNrAGM5Ag+s6NxxGPxmwrf2wlN4zVecrHCWlqni24yDX2dE0pfuaBkK
3BB4Dw4CtaNrtmu2RZ3PCmr2eBUqXK1EJ+vg+8nxfiCI4t+z4ZyslO7xFg/8Ww0s
+KlGhud0oJHb+tL6hvo8CV/01pkD9MWXHdrIl9QByLg1QQpatunJS2piK+aXYC2w
+/FxnKdYrSwxC/+DsMxC9wA42toCL4n7D4EbmpgOZ3NfAd0hMRdGwhH0miFX49T7
LOsrPkPJhwLOl/DRwQXtuehlinEBRnzlPaPBrvQKeYsoFwX5lMPxreURlK+GJP05
ObpckQ==
-----END CERTIFICATE-----
