Certificate:
    Data:
        Version: 3 (0x2)
        Serial Number:
            09:b7:10:b7:71:2c:10:36:01:54:f9:6d:1b:21:d4:7e:36:f1:e9:53
        Signature Algorithm: sha256WithRSAEncryption
        Issuer: C=UA, ST=Debug, O=FlowCrypt, CN=flowcrypt.test/emailAddress=admin@flowcrypt.test
        Validity
            Not Before: Apr 29 09:03:43 2021 GMT
            Not After : Apr 27 09:03:43 2031 GMT
        Subject: C=UA, ST=Debug, O=FlowCrypt, CN=mail.flowcrypt.test/emailAddress=admin@flowcrypt.test
        Subject Public Key Info:
            Public Key Algorithm: rsaEncryption
                RSA Public-Key: (2048 bit)
                Modulus:
                    00:d9:90:6f:6f:99:19:f0:70:9b:ab:42:97:48:f3:
                    8f:ef:a3:32:46:40:d5:6f:6e:74:39:17:76:09:c3:
                    9e:43:c0:4d:ba:6c:8b:95:94:c1:ff:07:80:2a:11:
                    eb:b9:b9:57:0c:8f:7c:eb:3f:6d:0c:9f:28:b5:34:
                    f9:a4:77:e7:b3:1e:0d:25:77:32:3b:c3:16:c9:a0:
                    75:51:71:d2:2a:9d:74:dd:21:5e:c1:fa:eb:8a:50:
                    9a:67:9e:cc:c9:43:75:d7:d3:ab:a3:ec:3d:8f:38:
                    7a:72:8f:b2:0e:16:86:43:0f:04:2a:ef:39:3c:fe:
                    9c:dc:e2:b5:4e:d6:d8:04:d2:0e:9f:71:e9:ec:4b:
                    8d:68:e1:14:0a:5c:dd:3d:ac:d0:0b:f4:85:6c:a9:
                    e4:21:66:e6:b6:d4:45:a7:a3:42:c1:83:d6:f6:28:
                    d6:e6:2d:e0:92:a2:75:48:71:2d:19:37:92:0c:8e:
                    0d:2d:2a:a2:86:24:26:61:e8:7a:8b:39:72:57:f6:
                    78:ba:53:d7:76:fd:81:bb:e3:b4:a2:29:15:38:a1:
                    fd:a4:7a:87:ee:3a:a7:84:fe:fe:47:37:ec:f8:b5:
                    ee:e4:ae:03:16:79:66:1c:bb:90:8d:7b:8b:93:ba:
                    68:25:90:0a:d9:85:e8:c7:57:50:99:39:c9:37:37:
                    4e:3b
                Exponent: 65537 (0x10001)
        X509v3 extensions:
            X509v3 Basic Constraints: 
                CA:FALSE
            Netscape Comment: 
                OpenSSL Generated Certificate
            X509v3 Subject Key Identifier: 
                D7:CA:AB:0F:C8:C5:B6:63:8A:C3:3E:83:D8:EB:52:78:A1:DD:1D:29
            X509v3 Authority Key Identifier: 
                keyid:CC:5E:C9:EC:AE:05:FF:3C:08:64:3C:8A:75:6A:7F:DF:08:A8:FE:A9

    Signature Algorithm: sha256WithRSAEncryption
         a0:af:35:d6:6a:68:bc:52:2b:03:73:b6:e8:24:2e:19:c5:d3:
         8a:49:de:26:f4:ca:b9:25:31:79:e1:85:21:4f:b3:f1:0e:ec:
         10:08:cb:d8:f2:b8:bf:ef:23:ed:8a:ae:bd:a0:7a:39:fb:47:
         36:b4:76:47:41:7b:34:e2:15:5a:3b:39:5d:a7:07:8e:1d:f8:
         21:10:50:e5:b7:71:0e:37:5f:92:2e:fb:17:3e:fa:58:7c:bd:
         1d:d1:1c:b8:d6:18:28:eb:b1:6d:e0:30:ec:a1:26:c9:9c:c0:
         15:a5:15:03:63:1f:bd:4f:70:d9:bd:53:2a:9a:6f:b3:08:35:
         b4:d7:4d:2a:5f:f9:b9:29:ea:6e:ce:38:78:88:e9:b8:3f:00:
         88:13:c3:aa:01:6e:e2:67:a4:a5:66:ec:1a:c0:55:17:a9:07:
         d6:f7:9f:f1:0e:cf:97:e0:68:36:1d:de:52:16:f3:70:5e:a7:
         0f:78:d9:97:45:e4:02:b4:2a:92:a8:e9:ac:31:a4:0d:8c:68:
         10:d6:47:6c:4a:c7:e4:97:85:ea:51:64:7e:7a:62:24:b8:ea:
         df:3f:a0:3d:29:ee:4d:4b:4e:ce:48:fc:aa:ce:3b:cc:22:72:
         e7:90:c7:43:44:e9:e8:14:d7:0a:1c:80:12:14:d6:36:83:94:
         c7:75:dc:cb
-----BEGIN CERTIFICATE-----
MIID7DCCAtSgAwIBAgIUCbcQt3EsEDYBVPltGyHUfjbx6VMwDQYJKoZIhvcNAQEL
BQAwbzELMAkGA1UEBhMCVUExDjAMBgNVBAgMBURlYnVnMRIwEAYDVQQKDAlGbG93
Q3J5cHQxFzAVBgNVBAMMDmZsb3djcnlwdC50ZXN0MSMwIQYJKoZIhvcNAQkBFhRh
ZG1pbkBmbG93Y3J5cHQudGVzdDAeFw0yMTA0MjkwOTAzNDNaFw0zMTA0MjcwOTAz
NDNaMHQxCzAJBgNVBAYTAlVBMQ4wDAYDVQQIDAVEZWJ1ZzESMBAGA1UECgwJRmxv
d0NyeXB0MRwwGgYDVQQDDBNtYWlsLmZsb3djcnlwdC50ZXN0MSMwIQYJKoZIhvcN
AQkBFhRhZG1pbkBmbG93Y3J5cHQudGVzdDCCASIwDQYJKoZIhvcNAQEBBQADggEP
ADCCAQoCggEBANmQb2+ZGfBwm6tCl0jzj++jMkZA1W9udDkXdgnDnkPATbpsi5WU
wf8HgCoR67m5VwyPfOs/bQyfKLU0+aR357MeDSV3MjvDFsmgdVFx0iqddN0hXsH6
64pQmmeezMlDddfTq6PsPY84enKPsg4WhkMPBCrvOTz+nNzitU7W2ATSDp9x6exL
jWjhFApc3T2s0Av0hWyp5CFm5rbURaejQsGD1vYo1uYt4JKidUhxLRk3kgyODS0q
ooYkJmHoeos5clf2eLpT13b9gbvjtKIpFTih/aR6h+46p4T+/kc37Pi17uSuAxZ5
Zhy7kI17i5O6aCWQCtmF6MdXUJk5yTc3TjsCAwEAAaN7MHkwCQYDVR0TBAIwADAs
BglghkgBhvhCAQ0EHxYdT3BlblNTTCBHZW5lcmF0ZWQgQ2VydGlmaWNhdGUwHQYD
VR0OBBYEFNfKqw/IxbZjisM+g9jrUnih3R0pMB8GA1UdIwQYMBaAFMxeyeyuBf88
CGQ8inVqf98IqP6pMA0GCSqGSIb3DQEBCwUAA4IBAQCgrzXWami8UisDc7boJC4Z
xdOKSd4m9Mq5JTF54YUhT7PxDuwQCMvY8ri/7yPtiq69oHo5+0c2tHZHQXs04hVa
OzldpweOHfghEFDlt3EON1+SLvsXPvpYfL0d0Ry41hgo67Ft4DDsoSbJnMAVpRUD
Yx+9T3DZvVMqmm+zCDW0100qX/m5Kepuzjh4iOm4PwCIE8OqAW7iZ6SlZuwawFUX
qQfW95/xDs+X4Gg2Hd5SFvNwXqcPeNmXReQCtCqSqOmsMaQNjGgQ1kdsSsfkl4Xq
UWR+emIkuOrfP6A9Ke5NS07OSPyqzjvMInLnkMdDROnoFNcKHIASFNY2g5THddzL
-----END CERTIFICATE-----
